
c1200_soc_r5.elf:     file format elf32-littlearm


Disassembly of section .privileged_functions:

05100000 <__FLASH_segment_start__>:
/*.extern FreeRTOS_SWI_Handler*/
.extern AbortRarry

.section .freertos_vectors, "a"
__vector_table:
	LDR	pc,=ResetHandler
 5100000:	e59ff018 	ldr	pc, [pc, #24]	; 5100020 <__FLASH_segment_start__+0x20>
	LDR	pc,=FreeRTOS_Undefined
 5100004:	e59ff018 	ldr	pc, [pc, #24]	; 5100024 <__FLASH_segment_start__+0x24>
	LDR pc,=FreeRTOS_SVC_Handler
 5100008:	e59ff018 	ldr	pc, [pc, #24]	; 5100028 <__FLASH_segment_start__+0x28>
	/*LDR pc,=FreeRTOS_SWI_Handler*/
	LDR	pc,=FreeRTOS_PrefetchAbortHandler
 510000c:	e59ff018 	ldr	pc, [pc, #24]	; 510002c <__FLASH_segment_start__+0x2c>
	LDR	pc,=FreeRTOS_DataAbortHandler
 5100010:	e59ff018 	ldr	pc, [pc, #24]	; 5100030 <__FLASH_segment_start__+0x30>
	NOP	/* Placeholder for address exception vector*/
 5100014:	e320f000 	nop	{0}
	LDR pc,=FreeRTOS_IRQ_Handler
 5100018:	e59ff014 	ldr	pc, [pc, #20]	; 5100034 <__FLASH_segment_start__+0x34>
	LDR	pc,=FreeRTOS_FIQHandler
 510001c:	e59ff014 	ldr	pc, [pc, #20]	; 5100038 <__FLASH_segment_start__+0x38>
	LDR	pc,=ResetHandler
 5100020:	05110000 	.word	0x05110000
	LDR	pc,=FreeRTOS_Undefined
 5100024:	05110288 	.word	0x05110288
	LDR pc,=FreeRTOS_SVC_Handler
 5100028:	051000a0 	.word	0x051000a0
	LDR	pc,=FreeRTOS_PrefetchAbortHandler
 510002c:	051102e8 	.word	0x051102e8
	LDR	pc,=FreeRTOS_DataAbortHandler
 5100030:	051102b8 	.word	0x051102b8
	LDR pc,=FreeRTOS_IRQ_Handler
 5100034:	051002d0 	.word	0x051002d0
	LDR	pc,=FreeRTOS_FIQHandler
 5100038:	0511025c 	.word	0x0511025c
 510003c:	00000000 	.word	0x00000000

05100040 <vPortStartFirstTask>:
 5100040:	f1020013 	cps	#19
 5100044:	e59fe3c0 	ldr	lr, [pc, #960]	; 510040c <vTaskSwitchContextConst+0x4>
 5100048:	e59ee000 	ldr	lr, [lr]
 510004c:	e28e1004 	add	r1, lr, #4
 5100050:	e59ee000 	ldr	lr, [lr]
 5100054:	e3a05000 	mov	r5, #0
 5100058:	e8b1001c 	ldm	r1!, {r2, r3, r4}
 510005c:	ee065f12 	mcr	15, 0, r5, cr6, cr2, {0}
 5100060:	ee064f11 	mcr	15, 0, r4, cr6, cr1, {0}
 5100064:	ee063f91 	mcr	15, 0, r3, cr6, cr1, {4}
 5100068:	ee062f51 	mcr	15, 0, r2, cr6, cr1, {2}
 510006c:	e2855001 	add	r5, r5, #1
 5100070:	e3550008 	cmp	r5, #8
 5100074:	dafffff7 	ble	5100058 <vPortStartFirstTask+0x18>
 5100078:	e59f1390 	ldr	r1, [pc, #912]	; 5100410 <vTaskSwitchContextConst+0x8>
 510007c:	e8be0004 	ldm	lr!, {r2}
 5100080:	e5812000 	str	r2, [r1]
 5100084:	e8be0002 	ldm	lr!, {r1}
 5100088:	eee11a10 	vmsr	fpscr, r1
 510008c:	ecbe0b20 	vldmia	lr!, {d0-d15}
 5100090:	e8de7fff 	ldm	lr, {r0, r1, r2, r3, r4, r5, r6, r7, r8, r9, sl, fp, ip, sp, lr}^
 5100094:	e28ee03c 	add	lr, lr, #60	; 0x3c
 5100098:	f89e0a00 	rfeia	lr
 510009c:	00000000 	.word	0x00000000

051000a0 <FreeRTOS_SVC_Handler>:
 51000a0:	e92d1800 	push	{fp, ip}
 51000a4:	e59fb368 	ldr	fp, [pc, #872]	; 5100414 <vTaskSwitchContextConst+0xc>
 51000a8:	e59fc368 	ldr	ip, [pc, #872]	; 5100418 <vTaskSwitchContextConst+0x10>
 51000ac:	e15e000b 	cmp	lr, fp
 51000b0:	ba00000d 	blt	51000ec <svcHandlerExit>
 51000b4:	e15e000c 	cmp	lr, ip
 51000b8:	ca00000b 	bgt	51000ec <svcHandlerExit>
 51000bc:	e14fb000 	mrs	fp, SPSR
 51000c0:	e31b0020 	tst	fp, #32
 51000c4:	115eb0b2 	ldrhne	fp, [lr, #-2]
 51000c8:	13cbbcff 	bicne	fp, fp, #65280	; 0xff00
 51000cc:	051eb004 	ldreq	fp, [lr, #-4]
 51000d0:	03cbb4ff 	biceq	fp, fp, #-16777216	; 0xff000000
 51000d4:	e35b0046 	cmp	fp, #70	; 0x46
 51000d8:	ba00003d 	blt	51001d4 <svcSystemCallEnter>
 51000dc:	e35b0f41 	cmp	fp, #260	; 0x104
 51000e0:	0a00002d 	beq	510019c <svcSystemCallExit>
 51000e4:	e35b0c01 	cmp	fp, #256	; 0x100
 51000e8:	0a000001 	beq	51000f4 <svcPortYield>

051000ec <svcHandlerExit>:
 51000ec:	e8bd1800 	pop	{fp, ip}
 51000f0:	e1b0f00e 	movs	pc, lr

051000f4 <svcPortYield>:
 51000f4:	e8bd1800 	pop	{fp, ip}
 51000f8:	f57ff04f 	dsb	sy
 51000fc:	f57ff06f 	isb	sy
 5100100:	e92d4001 	push	{r0, lr}
 5100104:	e59fe300 	ldr	lr, [pc, #768]	; 510040c <vTaskSwitchContextConst+0x4>
 5100108:	e59ee000 	ldr	lr, [lr]
 510010c:	e59ee000 	ldr	lr, [lr]
 5100110:	e59f02f8 	ldr	r0, [pc, #760]	; 5100410 <vTaskSwitchContextConst+0x8>
 5100114:	e5900000 	ldr	r0, [r0]
 5100118:	e8ae0001 	stmia	lr!, {r0}
 510011c:	eef10a10 	vmrs	r0, fpscr
 5100120:	e8ae0001 	stmia	lr!, {r0}
 5100124:	ecae0b20 	vstmia	lr!, {d0-d15}
 5100128:	e49d0004 	pop	{r0}		; (ldr r0, [sp], #4)
 510012c:	e8ce7fff 	stmia	lr, {r0, r1, r2, r3, r4, r5, r6, r7, r8, r9, sl, fp, ip, sp, lr}^
 5100130:	e28ee03c 	add	lr, lr, #60	; 0x3c
 5100134:	e49d0004 	pop	{r0}		; (ldr r0, [sp], #4)
 5100138:	e14f1000 	mrs	r1, SPSR
 510013c:	e8ae0003 	stmia	lr!, {r0, r1}
 5100140:	eb001a87 	bl	5106b64 <vTaskSwitchContext>
 5100144:	e59fe2c0 	ldr	lr, [pc, #704]	; 510040c <vTaskSwitchContextConst+0x4>
 5100148:	e59ee000 	ldr	lr, [lr]
 510014c:	e28e1004 	add	r1, lr, #4
 5100150:	e59ee000 	ldr	lr, [lr]
 5100154:	e3a05000 	mov	r5, #0
 5100158:	e8b1001c 	ldm	r1!, {r2, r3, r4}
 510015c:	ee065f12 	mcr	15, 0, r5, cr6, cr2, {0}
 5100160:	ee064f11 	mcr	15, 0, r4, cr6, cr1, {0}
 5100164:	ee063f91 	mcr	15, 0, r3, cr6, cr1, {4}
 5100168:	ee062f51 	mcr	15, 0, r2, cr6, cr1, {2}
 510016c:	e2855001 	add	r5, r5, #1
 5100170:	e3550008 	cmp	r5, #8
 5100174:	dafffff7 	ble	5100158 <svcPortYield+0x64>
 5100178:	e59f1290 	ldr	r1, [pc, #656]	; 5100410 <vTaskSwitchContextConst+0x8>
 510017c:	e8be0004 	ldm	lr!, {r2}
 5100180:	e5812000 	str	r2, [r1]
 5100184:	e8be0002 	ldm	lr!, {r1}
 5100188:	eee11a10 	vmsr	fpscr, r1
 510018c:	ecbe0b20 	vldmia	lr!, {d0-d15}
 5100190:	e8de7fff 	ldm	lr, {r0, r1, r2, r3, r4, r5, r6, r7, r8, r9, sl, fp, ip, sp, lr}^
 5100194:	e28ee03c 	add	lr, lr, #60	; 0x3c
 5100198:	f89e0a00 	rfeia	lr

0510019c <svcSystemCallExit>:
 510019c:	e59fb268 	ldr	fp, [pc, #616]	; 510040c <vTaskSwitchContextConst+0x4>
 51001a0:	e59bb000 	ldr	fp, [fp]
 51001a4:	e28bb074 	add	fp, fp, #116	; 0x74
 51001a8:	e8db6000 	ldm	fp, {sp, lr}^
 51001ac:	e20cc000 	and	ip, ip, #0
 51001b0:	e58bc000 	str	ip, [fp]
 51001b4:	e58bc004 	str	ip, [fp, #4]
 51001b8:	e91b1000 	ldmdb	fp, {ip}
 51001bc:	e31c0002 	tst	ip, #2
 51001c0:	1affffc9 	bne	51000ec <svcHandlerExit>
 51001c4:	e14fc000 	mrs	ip, SPSR
 51001c8:	e3ccc00f 	bic	ip, ip, #15
 51001cc:	e16ff00c 	msr	SPSR_fsxc, ip
 51001d0:	eaffffc5 	b	51000ec <svcHandlerExit>

051001d4 <svcSystemCallEnter>:
 51001d4:	e59fc240 	ldr	ip, [pc, #576]	; 510041c <vTaskSwitchContextConst+0x14>
 51001d8:	e79cc10b 	ldr	ip, [ip, fp, lsl #2]
 51001dc:	e35c0000 	cmp	ip, #0
 51001e0:	0affffc1 	beq	51000ec <svcHandlerExit>
 51001e4:	e1a0e00c 	mov	lr, ip
 51001e8:	e59fb21c 	ldr	fp, [pc, #540]	; 510040c <vTaskSwitchContextConst+0x4>
 51001ec:	e59bb000 	ldr	fp, [fp]
 51001f0:	e28bb074 	add	fp, fp, #116	; 0x74
 51001f4:	e8cb6000 	stmia	fp, {sp, lr}^
 51001f8:	e28bb008 	add	fp, fp, #8
 51001fc:	e8db6000 	ldm	fp, {sp, lr}^
 5100200:	e14fc000 	mrs	ip, SPSR
 5100204:	e38cc01f 	orr	ip, ip, #31
 5100208:	e16ff00c 	msr	SPSR_fsxc, ip
 510020c:	eaffffb6 	b	51000ec <svcHandlerExit>

05100210 <vPortDisableInterrupts>:
 5100210:	f10c0080 	cpsid	i
 5100214:	e12fff1e 	bx	lr
	...

05100220 <vPortEnableInterrupts>:
 5100220:	f1080080 	cpsie	i
 5100224:	e12fff1e 	bx	lr
	...

05100230 <vMPUSetRegion>:
 5100230:	e200000f 	and	r0, r0, #15
 5100234:	ee060f12 	mcr	15, 0, r0, cr6, cr2, {0}
 5100238:	ee061f11 	mcr	15, 0, r1, cr6, cr1, {0}
 510023c:	ee063f91 	mcr	15, 0, r3, cr6, cr1, {4}
 5100240:	ee062f51 	mcr	15, 0, r2, cr6, cr1, {2}
 5100244:	e12fff1e 	bx	lr
	...

05100250 <vMPUEnable>:
 5100250:	e52d0004 	push	{r0}		; (str r0, [sp, #-4]!)
 5100254:	ee110f10 	mrc	15, 0, r0, cr1, cr0, {0}
 5100258:	e3800001 	orr	r0, r0, #1
 510025c:	f57ff04f 	dsb	sy
 5100260:	ee010f10 	mcr	15, 0, r0, cr1, cr0, {0}
 5100264:	f57ff06f 	isb	sy
 5100268:	e49d0004 	pop	{r0}		; (ldr r0, [sp], #4)
 510026c:	e12fff1e 	bx	lr

05100270 <vMPUDisable>:
 5100270:	e52d0004 	push	{r0}		; (str r0, [sp, #-4]!)
 5100274:	ee110f10 	mrc	15, 0, r0, cr1, cr0, {0}
 5100278:	e3c00001 	bic	r0, r0, #1
 510027c:	f57ff04f 	dsb	sy
 5100280:	ee010f10 	mcr	15, 0, r0, cr1, cr0, {0}
 5100284:	f57ff06f 	isb	sy
 5100288:	e49d0004 	pop	{r0}		; (ldr r0, [sp], #4)
 510028c:	e12fff1e 	bx	lr

05100290 <vMPUEnableBackgroundRegion>:
 5100290:	e52d0004 	push	{r0}		; (str r0, [sp, #-4]!)
 5100294:	ee110f10 	mrc	15, 0, r0, cr1, cr0, {0}
 5100298:	e3800802 	orr	r0, r0, #131072	; 0x20000
 510029c:	ee010f10 	mcr	15, 0, r0, cr1, cr0, {0}
 51002a0:	e49d0004 	pop	{r0}		; (ldr r0, [sp], #4)
 51002a4:	e12fff1e 	bx	lr
	...

051002b0 <vMPUDisableBackgroundRegion>:
 51002b0:	e52d0004 	push	{r0}		; (str r0, [sp, #-4]!)
 51002b4:	ee110f10 	mrc	15, 0, r0, cr1, cr0, {0}
 51002b8:	e3c00802 	bic	r0, r0, #131072	; 0x20000
 51002bc:	ee010f10 	mcr	15, 0, r0, cr1, cr0, {0}
 51002c0:	e49d0004 	pop	{r0}		; (ldr r0, [sp], #4)
 51002c4:	e12fff1e 	bx	lr
	...

051002d0 <FreeRTOS_IRQ_Handler>:
 51002d0:	e24ee004 	sub	lr, lr, #4
 51002d4:	f96d0512 	srsdb	sp!, #18
 51002d8:	f1020013 	cps	#19
 51002dc:	e92d100f 	push	{r0, r1, r2, r3, ip}
 51002e0:	e59f0138 	ldr	r0, [pc, #312]	; 5100420 <vTaskSwitchContextConst+0x18>
 51002e4:	e5901000 	ldr	r1, [r0]
 51002e8:	e2812001 	add	r2, r1, #1
 51002ec:	e5802000 	str	r2, [r0]
 51002f0:	e59f7108 	ldr	r7, [pc, #264]	; 5100400 <ulICCIARConst>
 51002f4:	e5977000 	ldr	r7, [r7]
 51002f8:	e5976000 	ldr	r6, [r7]
 51002fc:	e92d400f 	push	{r0, r1, r2, r3, lr}
 5100300:	eb004498 	bl	5111568 <vApplicationIRQHandler>
 5100304:	e8bd400f 	pop	{r0, r1, r2, r3, lr}
 5100308:	f10c0080 	cpsid	i
 510030c:	f57ff04f 	dsb	sy
 5100310:	f57ff06f 	isb	sy
 5100314:	e5801000 	str	r1, [r0]
 5100318:	e3510000 	cmp	r1, #0
 510031c:	1a000003 	bne	5100330 <exit_without_switch>
 5100320:	e59f10fc 	ldr	r1, [pc, #252]	; 5100424 <vTaskSwitchContextConst+0x1c>
 5100324:	e5910000 	ldr	r0, [r1]
 5100328:	e3500000 	cmp	r0, #0
 510032c:	1a000002 	bne	510033c <switch_before_exit>

05100330 <exit_without_switch>:
 5100330:	e8bd100f 	pop	{r0, r1, r2, r3, ip}
 5100334:	f1020012 	cps	#18
 5100338:	f8bd0a00 	rfeia	sp!

0510033c <switch_before_exit>:
 510033c:	e3a00000 	mov	r0, #0
 5100340:	e5810000 	str	r0, [r1]
 5100344:	e8bd100f 	pop	{r0, r1, r2, r3, ip}
 5100348:	f1020012 	cps	#18
 510034c:	e9bd4000 	ldmib	sp!, {lr}
 5100350:	e16ff00e 	msr	SPSR_fsxc, lr
 5100354:	e91d4000 	ldmdb	sp, {lr}
 5100358:	e28dd004 	add	sp, sp, #4
 510035c:	f57ff04f 	dsb	sy
 5100360:	f57ff06f 	isb	sy
 5100364:	e92d4001 	push	{r0, lr}
 5100368:	e59fe09c 	ldr	lr, [pc, #156]	; 510040c <vTaskSwitchContextConst+0x4>
 510036c:	e59ee000 	ldr	lr, [lr]
 5100370:	e59ee000 	ldr	lr, [lr]
 5100374:	e59f0094 	ldr	r0, [pc, #148]	; 5100410 <vTaskSwitchContextConst+0x8>
 5100378:	e5900000 	ldr	r0, [r0]
 510037c:	e8ae0001 	stmia	lr!, {r0}
 5100380:	eef10a10 	vmrs	r0, fpscr
 5100384:	e8ae0001 	stmia	lr!, {r0}
 5100388:	ecae0b20 	vstmia	lr!, {d0-d15}
 510038c:	e49d0004 	pop	{r0}		; (ldr r0, [sp], #4)
 5100390:	e8ce7fff 	stmia	lr, {r0, r1, r2, r3, r4, r5, r6, r7, r8, r9, sl, fp, ip, sp, lr}^
 5100394:	e28ee03c 	add	lr, lr, #60	; 0x3c
 5100398:	e49d0004 	pop	{r0}		; (ldr r0, [sp], #4)
 510039c:	e14f1000 	mrs	r1, SPSR
 51003a0:	e8ae0003 	stmia	lr!, {r0, r1}
 51003a4:	eb0019ee 	bl	5106b64 <vTaskSwitchContext>
 51003a8:	e59fe05c 	ldr	lr, [pc, #92]	; 510040c <vTaskSwitchContextConst+0x4>
 51003ac:	e59ee000 	ldr	lr, [lr]
 51003b0:	e28e1004 	add	r1, lr, #4
 51003b4:	e59ee000 	ldr	lr, [lr]
 51003b8:	e3a05000 	mov	r5, #0
 51003bc:	e8b1001c 	ldm	r1!, {r2, r3, r4}
 51003c0:	ee065f12 	mcr	15, 0, r5, cr6, cr2, {0}
 51003c4:	ee064f11 	mcr	15, 0, r4, cr6, cr1, {0}
 51003c8:	ee063f91 	mcr	15, 0, r3, cr6, cr1, {4}
 51003cc:	ee062f51 	mcr	15, 0, r2, cr6, cr1, {2}
 51003d0:	e2855001 	add	r5, r5, #1
 51003d4:	e3550008 	cmp	r5, #8
 51003d8:	dafffff7 	ble	51003bc <switch_before_exit+0x80>
 51003dc:	e59f102c 	ldr	r1, [pc, #44]	; 5100410 <vTaskSwitchContextConst+0x8>
 51003e0:	e8be0004 	ldm	lr!, {r2}
 51003e4:	e5812000 	str	r2, [r1]
 51003e8:	e8be0002 	ldm	lr!, {r1}
 51003ec:	eee11a10 	vmsr	fpscr, r1
 51003f0:	ecbe0b20 	vldmia	lr!, {d0-d15}
 51003f4:	e8de7fff 	ldm	lr, {r0, r1, r2, r3, r4, r5, r6, r7, r8, r9, sl, fp, ip, sp, lr}^
 51003f8:	e28ee03c 	add	lr, lr, #60	; 0x3c
 51003fc:	f89e0a00 	rfeia	lr

05100400 <ulICCIARConst>:
 5100400:	0512dbb8 	.word	0x0512dbb8

05100404 <ulICCEOIRConst>:
 5100404:	0512dbb4 	.word	0x0512dbb4

05100408 <vTaskSwitchContextConst>:
 5100408:	05106b64 	.word	0x05106b64
 510040c:	0511cdc4 	.word	0x0511cdc4
 5100410:	051276c8 	.word	0x051276c8
 5100414:	05110000 	.word	0x05110000
 5100418:	0511064c 	.word	0x0511064c
 510041c:	051275a8 	.word	0x051275a8
 5100420:	051276cc 	.word	0x051276cc
 5100424:	051276c0 	.word	0x051276c0

05100428 <xEventGroupCreate>:
            traceENTER_xEventGroupCreate();

            /* MISRA Ref 11.5.1 [Malloc memory assignment] */
            /* More details at: https://github.com/FreeRTOS/FreeRTOS-Kernel/blob/main/MISRA.md#rule-115 */
            /* coverity[misra_c_2012_rule_11_5_violation] */
            pxEventBits = ( EventGroup_t * ) pvPortMalloc( sizeof( EventGroup_t ) );
 5100428:	e3073f74 	movw	r3, #32628	; 0x7f74
 510042c:	e3a0001c 	mov	r0, #28
        {
 5100430:	e92d4070 	push	{r4, r5, r6, lr}
            pxEventBits = ( EventGroup_t * ) pvPortMalloc( sizeof( EventGroup_t ) );
 5100434:	e3403510 	movt	r3, #1296	; 0x510
 5100438:	e12fff33 	blx	r3

            if( pxEventBits != NULL )
 510043c:	e2504000 	subs	r4, r0, #0
 5100440:	0a000006 	beq	5100460 <xEventGroupCreate+0x38>
            {
                pxEventBits->uxEventBits = 0;
 5100444:	e3a05000 	mov	r5, #0
 5100448:	e1a00004 	mov	r0, r4
                vListInitialise( &( pxEventBits->xTasksWaitingForBits ) );
 510044c:	e3003c28 	movw	r3, #3112	; 0xc28
                pxEventBits->uxEventBits = 0;
 5100450:	e4805004 	str	r5, [r0], #4
                vListInitialise( &( pxEventBits->xTasksWaitingForBits ) );
 5100454:	e3403510 	movt	r3, #1296	; 0x510
 5100458:	e12fff33 	blx	r3
                #if ( configSUPPORT_STATIC_ALLOCATION == 1 )
                {
                    /* Both static and dynamic allocation can be used, so note this
                     * event group was allocated statically in case the event group is
                     * later deleted. */
                    pxEventBits->ucStaticallyAllocated = pdFALSE;
 510045c:	e5c45018 	strb	r5, [r4, #24]
            }

            traceRETURN_xEventGroupCreate( pxEventBits );

            return pxEventBits;
        }
 5100460:	e1a00004 	mov	r0, r4
 5100464:	e8bd8070 	pop	{r4, r5, r6, pc}

05100468 <xEventGroupCreateStatic>:
        {
 5100468:	e92d4030 	push	{r4, r5, lr}
            configASSERT( pxEventGroupBuffer );
 510046c:	e2504000 	subs	r4, r0, #0
        {
 5100470:	e24dd00c 	sub	sp, sp, #12
            configASSERT( pxEventGroupBuffer );
 5100474:	0a000016 	beq	51004d4 <xEventGroupCreateStatic+0x6c>
                volatile size_t xSize = sizeof( StaticEventGroup_t );
 5100478:	e3a0301c 	mov	r3, #28
 510047c:	e58d3004 	str	r3, [sp, #4]
                configASSERT( xSize == sizeof( EventGroup_t ) );
 5100480:	e59d3004 	ldr	r3, [sp, #4]
 5100484:	e353001c 	cmp	r3, #28
 5100488:	1a00000a 	bne	51004b8 <xEventGroupCreateStatic+0x50>
                pxEventBits->uxEventBits = 0;
 510048c:	e1a00004 	mov	r0, r4
 5100490:	e3a02000 	mov	r2, #0
                vListInitialise( &( pxEventBits->xTasksWaitingForBits ) );
 5100494:	e3003c28 	movw	r3, #3112	; 0xc28
                pxEventBits->uxEventBits = 0;
 5100498:	e4802004 	str	r2, [r0], #4
                vListInitialise( &( pxEventBits->xTasksWaitingForBits ) );
 510049c:	e3403510 	movt	r3, #1296	; 0x510
 51004a0:	e12fff33 	blx	r3
                    pxEventBits->ucStaticallyAllocated = pdTRUE;
 51004a4:	e3a03001 	mov	r3, #1
 51004a8:	e5c43018 	strb	r3, [r4, #24]
        }
 51004ac:	e1a00004 	mov	r0, r4
 51004b0:	e28dd00c 	add	sp, sp, #12
 51004b4:	e8bd8030 	pop	{r4, r5, pc}
                configASSERT( xSize == sizeof( EventGroup_t ) );
 51004b8:	e30d0a4c 	movw	r0, #55884	; 0xda4c
 51004bc:	e3003900 	movw	r3, #2304	; 0x900
 51004c0:	e3a01065 	mov	r1, #101	; 0x65
 51004c4:	e3403511 	movt	r3, #1297	; 0x511
 51004c8:	e3400512 	movt	r0, #1298	; 0x512
 51004cc:	e12fff33 	blx	r3
            if( pxEventBits != NULL )
 51004d0:	eaffffed 	b	510048c <xEventGroupCreateStatic+0x24>
            configASSERT( pxEventGroupBuffer );
 51004d4:	e30d0a4c 	movw	r0, #55884	; 0xda4c
 51004d8:	e3005900 	movw	r5, #2304	; 0x900
 51004dc:	e3a0105d 	mov	r1, #93	; 0x5d
 51004e0:	e3400512 	movt	r0, #1298	; 0x512
 51004e4:	e3405511 	movt	r5, #1297	; 0x511
 51004e8:	e12fff35 	blx	r5
                volatile size_t xSize = sizeof( StaticEventGroup_t );
 51004ec:	e3a0301c 	mov	r3, #28
 51004f0:	e58d3004 	str	r3, [sp, #4]
                configASSERT( xSize == sizeof( EventGroup_t ) );
 51004f4:	e59d3004 	ldr	r3, [sp, #4]
 51004f8:	e353001c 	cmp	r3, #28
 51004fc:	0affffea 	beq	51004ac <xEventGroupCreateStatic+0x44>
 5100500:	e30d0a4c 	movw	r0, #55884	; 0xda4c
 5100504:	e3a01065 	mov	r1, #101	; 0x65
 5100508:	e3400512 	movt	r0, #1298	; 0x512
 510050c:	e12fff35 	blx	r5
            return pxEventBits;
 5100510:	eaffffe5 	b	51004ac <xEventGroupCreateStatic+0x44>

05100514 <xEventGroupWaitBits>:
    EventBits_t xEventGroupWaitBits( EventGroupHandle_t xEventGroup,
                                     const EventBits_t uxBitsToWaitFor,
                                     const BaseType_t xClearOnExit,
                                     const BaseType_t xWaitForAllBits,
                                     TickType_t xTicksToWait )
    {
 5100514:	e92d47f0 	push	{r4, r5, r6, r7, r8, r9, sl, lr}
 5100518:	e59d9020 	ldr	r9, [sp, #32]

        traceENTER_xEventGroupWaitBits( xEventGroup, uxBitsToWaitFor, xClearOnExit, xWaitForAllBits, xTicksToWait );

        /* Check the user is not attempting to wait on the bits used by the kernel
         * itself, and that at least one bit is being requested. */
        configASSERT( xEventGroup );
 510051c:	e2506000 	subs	r6, r0, #0
    {
 5100520:	e1a04001 	mov	r4, r1
 5100524:	e1a08002 	mov	r8, r2
 5100528:	e1a07003 	mov	r7, r3
        configASSERT( xEventGroup );
 510052c:	0a000051 	beq	5100678 <xEventGroupWaitBits+0x164>
        configASSERT( ( uxBitsToWaitFor & eventEVENT_BITS_CONTROL_BYTES ) == 0 );
 5100530:	e31404ff 	tst	r4, #-16777216	; 0xff000000
 5100534:	1a000044 	bne	510064c <xEventGroupWaitBits+0x138>
        configASSERT( uxBitsToWaitFor != 0 );
 5100538:	e3540000 	cmp	r4, #0
 510053c:	0a000022 	beq	51005cc <xEventGroupWaitBits+0xb8>
        #if ( ( INCLUDE_xTaskGetSchedulerState == 1 ) || ( configUSE_TIMERS == 1 ) )
        {
            configASSERT( !( ( xTaskGetSchedulerState() == taskSCHEDULER_SUSPENDED ) && ( xTicksToWait != 0 ) ) );
 5100540:	e3063e28 	movw	r3, #28200	; 0x6e28
 5100544:	e3403510 	movt	r3, #1296	; 0x510
 5100548:	e12fff33 	blx	r3
 510054c:	e16f1f19 	clz	r1, r9
 5100550:	e1a012a1 	lsr	r1, r1, #5
 5100554:	e3500000 	cmp	r0, #0
 5100558:	13811001 	orrne	r1, r1, #1
 510055c:	e3510000 	cmp	r1, #0
 5100560:	0a00004b 	beq	5100694 <xEventGroupWaitBits+0x180>
        }
        #endif

        vTaskSuspendAll();
 5100564:	e30532a0 	movw	r3, #21152	; 0x52a0
 5100568:	e3403510 	movt	r3, #1296	; 0x510
 510056c:	e12fff33 	blx	r3
        {
            const EventBits_t uxCurrentEventBits = pxEventBits->uxEventBits;
 5100570:	e5965000 	ldr	r5, [r6]
                                            const EventBits_t uxBitsToWaitFor,
                                            const BaseType_t xWaitForAllBits )
    {
        BaseType_t xWaitConditionMet = pdFALSE;

        if( xWaitForAllBits == pdFALSE )
 5100574:	e3570000 	cmp	r7, #0
 5100578:	1a00000a 	bne	51005a8 <xEventGroupWaitBits+0x94>
        {
            /* Task only has to wait for one bit within uxBitsToWaitFor to be
             * set.  Is one already set? */
            if( ( uxCurrentEventBits & uxBitsToWaitFor ) != ( EventBits_t ) 0 )
 510057c:	e1140005 	tst	r4, r5
 5100580:	0a00000a 	beq	51005b0 <xEventGroupWaitBits+0x9c>
                if( xClearOnExit != pdFALSE )
 5100584:	e3580000 	cmp	r8, #0
 5100588:	0a00000a 	beq	51005b8 <xEventGroupWaitBits+0xa4>
        xAlreadyYielded = xTaskResumeAll();
 510058c:	e3053efc 	movw	r3, #24316	; 0x5efc
                    pxEventBits->uxEventBits &= ~uxBitsToWaitFor;
 5100590:	e1c54004 	bic	r4, r5, r4
        xAlreadyYielded = xTaskResumeAll();
 5100594:	e3403510 	movt	r3, #1296	; 0x510
                    pxEventBits->uxEventBits &= ~uxBitsToWaitFor;
 5100598:	e5864000 	str	r4, [r6]
        xAlreadyYielded = xTaskResumeAll();
 510059c:	e12fff33 	blx	r3
    }
 51005a0:	e1a00005 	mov	r0, r5
 51005a4:	e8bd87f0 	pop	{r4, r5, r6, r7, r8, r9, sl, pc}
        }
        else
        {
            /* Task has to wait for all the bits in uxBitsToWaitFor to be set.
             * Are they set already? */
            if( ( uxCurrentEventBits & uxBitsToWaitFor ) == uxBitsToWaitFor )
 51005a8:	e1d43005 	bics	r3, r4, r5
 51005ac:	0afffff4 	beq	5100584 <xEventGroupWaitBits+0x70>
            else if( xTicksToWait == ( TickType_t ) 0 )
 51005b0:	e3590000 	cmp	r9, #0
 51005b4:	1a00000b 	bne	51005e8 <xEventGroupWaitBits+0xd4>
        xAlreadyYielded = xTaskResumeAll();
 51005b8:	e3053efc 	movw	r3, #24316	; 0x5efc
 51005bc:	e3403510 	movt	r3, #1296	; 0x510
 51005c0:	e12fff33 	blx	r3
    }
 51005c4:	e1a00005 	mov	r0, r5
 51005c8:	e8bd87f0 	pop	{r4, r5, r6, r7, r8, r9, sl, pc}
        configASSERT( uxBitsToWaitFor != 0 );
 51005cc:	e30d0a4c 	movw	r0, #55884	; 0xda4c
 51005d0:	e3003900 	movw	r3, #2304	; 0x900
 51005d4:	e3001149 	movw	r1, #329	; 0x149
 51005d8:	e3403511 	movt	r3, #1297	; 0x511
 51005dc:	e3400512 	movt	r0, #1298	; 0x512
 51005e0:	e12fff33 	blx	r3
 51005e4:	eaffffd5 	b	5100540 <xEventGroupWaitBits+0x2c>
                vTaskPlaceOnUnorderedEventList( &( pxEventBits->xTasksWaitingForBits ), ( uxBitsToWaitFor | uxControlBits ), xTicksToWait );
 51005e8:	e3063774 	movw	r3, #26484	; 0x6774
                    uxControlBits |= eventCLEAR_EVENTS_ON_EXIT_BIT;
 51005ec:	e3580000 	cmp	r8, #0
 51005f0:	13a01401 	movne	r1, #16777216	; 0x1000000
 51005f4:	03a01000 	moveq	r1, #0
                vTaskPlaceOnUnorderedEventList( &( pxEventBits->xTasksWaitingForBits ), ( uxBitsToWaitFor | uxControlBits ), xTicksToWait );
 51005f8:	e1a02009 	mov	r2, r9
                if( xWaitForAllBits != pdFALSE )
 51005fc:	e3570000 	cmp	r7, #0
                    uxControlBits |= eventWAIT_FOR_ALL_BITS;
 5100600:	13811301 	orrne	r1, r1, #67108864	; 0x4000000
                vTaskPlaceOnUnorderedEventList( &( pxEventBits->xTasksWaitingForBits ), ( uxBitsToWaitFor | uxControlBits ), xTicksToWait );
 5100604:	e1811004 	orr	r1, r1, r4
 5100608:	e3403510 	movt	r3, #1296	; 0x510
 510060c:	e2860004 	add	r0, r6, #4
 5100610:	e12fff33 	blx	r3
        xAlreadyYielded = xTaskResumeAll();
 5100614:	e3053efc 	movw	r3, #24316	; 0x5efc
 5100618:	e3403510 	movt	r3, #1296	; 0x510
 510061c:	e12fff33 	blx	r3
            if( xAlreadyYielded == pdFALSE )
 5100620:	e3500000 	cmp	r0, #0
 5100624:	0a00000f 	beq	5100668 <xEventGroupWaitBits+0x154>
            uxReturn = uxTaskResetEventItemValue();
 5100628:	e3063dc4 	movw	r3, #28100	; 0x6dc4
 510062c:	e3403510 	movt	r3, #1296	; 0x510
 5100630:	e12fff33 	blx	r3
 5100634:	e1a05000 	mov	r5, r0
            if( ( uxReturn & eventUNBLOCKED_DUE_TO_BIT_SET ) == ( EventBits_t ) 0 )
 5100638:	e3100402 	tst	r0, #33554432	; 0x2000000
 510063c:	0a00001b 	beq	51006b0 <xEventGroupWaitBits+0x19c>
            uxReturn &= ~eventEVENT_BITS_CONTROL_BYTES;
 5100640:	e3c554ff 	bic	r5, r5, #-16777216	; 0xff000000
    }
 5100644:	e1a00005 	mov	r0, r5
 5100648:	e8bd87f0 	pop	{r4, r5, r6, r7, r8, r9, sl, pc}
        configASSERT( ( uxBitsToWaitFor & eventEVENT_BITS_CONTROL_BYTES ) == 0 );
 510064c:	e30d0a4c 	movw	r0, #55884	; 0xda4c
 5100650:	e3003900 	movw	r3, #2304	; 0x900
 5100654:	e3a01f52 	mov	r1, #328	; 0x148
 5100658:	e3403511 	movt	r3, #1297	; 0x511
 510065c:	e3400512 	movt	r0, #1298	; 0x512
 5100660:	e12fff33 	blx	r3
        configASSERT( uxBitsToWaitFor != 0 );
 5100664:	eaffffb5 	b	5100540 <xEventGroupWaitBits+0x2c>
                taskYIELD_WITHIN_API();
 5100668:	e3003000 	movw	r3, #0
 510066c:	e3403511 	movt	r3, #1297	; 0x511
 5100670:	e12fff33 	blx	r3
 5100674:	eaffffeb 	b	5100628 <xEventGroupWaitBits+0x114>
        configASSERT( xEventGroup );
 5100678:	e30d0a4c 	movw	r0, #55884	; 0xda4c
 510067c:	e3003900 	movw	r3, #2304	; 0x900
 5100680:	e3001147 	movw	r1, #327	; 0x147
 5100684:	e3403511 	movt	r3, #1297	; 0x511
 5100688:	e3400512 	movt	r0, #1298	; 0x512
 510068c:	e12fff33 	blx	r3
 5100690:	eaffffa6 	b	5100530 <xEventGroupWaitBits+0x1c>
            configASSERT( !( ( xTaskGetSchedulerState() == taskSCHEDULER_SUSPENDED ) && ( xTicksToWait != 0 ) ) );
 5100694:	e30d0a4c 	movw	r0, #55884	; 0xda4c
 5100698:	e3003900 	movw	r3, #2304	; 0x900
 510069c:	e3a01f53 	mov	r1, #332	; 0x14c
 51006a0:	e3403511 	movt	r3, #1297	; 0x511
 51006a4:	e3400512 	movt	r0, #1298	; 0x512
 51006a8:	e12fff33 	blx	r3
 51006ac:	eaffffac 	b	5100564 <xEventGroupWaitBits+0x50>
                taskENTER_CRITICAL();
 51006b0:	e30c3930 	movw	r3, #51504	; 0xc930
 51006b4:	e3403510 	movt	r3, #1296	; 0x510
 51006b8:	e12fff33 	blx	r3
                    uxReturn = pxEventBits->uxEventBits;
 51006bc:	e5965000 	ldr	r5, [r6]
        if( xWaitForAllBits == pdFALSE )
 51006c0:	e3570000 	cmp	r7, #0
 51006c4:	1a000008 	bne	51006ec <xEventGroupWaitBits+0x1d8>
            if( ( uxCurrentEventBits & uxBitsToWaitFor ) != ( EventBits_t ) 0 )
 51006c8:	e1140005 	tst	r4, r5
 51006cc:	0a000002 	beq	51006dc <xEventGroupWaitBits+0x1c8>
                        if( xClearOnExit != pdFALSE )
 51006d0:	e3580000 	cmp	r8, #0
                            pxEventBits->uxEventBits &= ~uxBitsToWaitFor;
 51006d4:	11c54004 	bicne	r4, r5, r4
 51006d8:	15864000 	strne	r4, [r6]
                taskEXIT_CRITICAL();
 51006dc:	e30c3988 	movw	r3, #51592	; 0xc988
 51006e0:	e3403510 	movt	r3, #1296	; 0x510
 51006e4:	e12fff33 	blx	r3
 51006e8:	eaffffd4 	b	5100640 <xEventGroupWaitBits+0x12c>
            if( ( uxCurrentEventBits & uxBitsToWaitFor ) == uxBitsToWaitFor )
 51006ec:	e1d43005 	bics	r3, r4, r5
 51006f0:	1afffff9 	bne	51006dc <xEventGroupWaitBits+0x1c8>
 51006f4:	eafffff5 	b	51006d0 <xEventGroupWaitBits+0x1bc>

051006f8 <xEventGroupClearBits>:
    {
 51006f8:	e92d4070 	push	{r4, r5, r6, lr}
 51006fc:	e1a04001 	mov	r4, r1
        configASSERT( xEventGroup );
 5100700:	e2505000 	subs	r5, r0, #0
 5100704:	0a000013 	beq	5100758 <xEventGroupClearBits+0x60>
        configASSERT( ( uxBitsToClear & eventEVENT_BITS_CONTROL_BYTES ) == 0 );
 5100708:	e31404ff 	tst	r4, #-16777216	; 0xff000000
 510070c:	1a00000a 	bne	510073c <xEventGroupClearBits+0x44>
        taskENTER_CRITICAL();
 5100710:	e30c3930 	movw	r3, #51504	; 0xc930
 5100714:	e3403510 	movt	r3, #1296	; 0x510
 5100718:	e12fff33 	blx	r3
            uxReturn = pxEventBits->uxEventBits;
 510071c:	e5956000 	ldr	r6, [r5]
        taskEXIT_CRITICAL();
 5100720:	e30c3988 	movw	r3, #51592	; 0xc988
            pxEventBits->uxEventBits &= ~uxBitsToClear;
 5100724:	e1c64004 	bic	r4, r6, r4
        taskEXIT_CRITICAL();
 5100728:	e3403510 	movt	r3, #1296	; 0x510
            pxEventBits->uxEventBits &= ~uxBitsToClear;
 510072c:	e5854000 	str	r4, [r5]
        taskEXIT_CRITICAL();
 5100730:	e12fff33 	blx	r3
    }
 5100734:	e1a00006 	mov	r0, r6
 5100738:	e8bd8070 	pop	{r4, r5, r6, pc}
        configASSERT( ( uxBitsToClear & eventEVENT_BITS_CONTROL_BYTES ) == 0 );
 510073c:	e30d0a4c 	movw	r0, #55884	; 0xda4c
 5100740:	e3003900 	movw	r3, #2304	; 0x900
 5100744:	e30011e3 	movw	r1, #483	; 0x1e3
 5100748:	e3403511 	movt	r3, #1297	; 0x511
 510074c:	e3400512 	movt	r0, #1298	; 0x512
 5100750:	e12fff33 	blx	r3
 5100754:	eaffffed 	b	5100710 <xEventGroupClearBits+0x18>
        configASSERT( xEventGroup );
 5100758:	e30d0a4c 	movw	r0, #55884	; 0xda4c
 510075c:	e3003900 	movw	r3, #2304	; 0x900
 5100760:	e30011e2 	movw	r1, #482	; 0x1e2
 5100764:	e3403511 	movt	r3, #1297	; 0x511
 5100768:	e3400512 	movt	r0, #1298	; 0x512
 510076c:	e12fff33 	blx	r3
 5100770:	eaffffe4 	b	5100708 <xEventGroupClearBits+0x10>

05100774 <xEventGroupSetBits>:
    {
 5100774:	e92d41f0 	push	{r4, r5, r6, r7, r8, lr}
 5100778:	e1a05001 	mov	r5, r1
        configASSERT( xEventGroup );
 510077c:	e2506000 	subs	r6, r0, #0
 5100780:	0a000030 	beq	5100848 <xEventGroupSetBits+0xd4>
        configASSERT( ( uxBitsToSet & eventEVENT_BITS_CONTROL_BYTES ) == 0 );
 5100784:	e31504ff 	tst	r5, #-16777216	; 0xff000000
 5100788:	1a000027 	bne	510082c <xEventGroupSetBits+0xb8>
        vTaskSuspendAll();
 510078c:	e30532a0 	movw	r3, #21152	; 0x52a0
        pxListEnd = listGET_END_MARKER( pxList );
 5100790:	e286800c 	add	r8, r6, #12
        vTaskSuspendAll();
 5100794:	e3403510 	movt	r3, #1296	; 0x510
 5100798:	e12fff33 	blx	r3
            pxEventBits->uxEventBits |= uxBitsToSet;
 510079c:	e5963000 	ldr	r3, [r6]
            pxListItem = listGET_HEAD_ENTRY( pxList );
 51007a0:	e5964010 	ldr	r4, [r6, #16]
            pxEventBits->uxEventBits |= uxBitsToSet;
 51007a4:	e1853003 	orr	r3, r5, r3
            while( pxListItem != pxListEnd )
 51007a8:	e1580004 	cmp	r8, r4
            pxEventBits->uxEventBits |= uxBitsToSet;
 51007ac:	e5863000 	str	r3, [r6]
            while( pxListItem != pxListEnd )
 51007b0:	0a000017 	beq	5100814 <xEventGroupSetBits+0xa0>
                    vTaskRemoveFromUnorderedEventList( pxListItem, pxEventBits->uxEventBits | eventUNBLOCKED_DUE_TO_BIT_SET );
 51007b4:	e3065a2c 	movw	r5, #27180	; 0x6a2c
        EventBits_t uxBitsToClear = 0, uxBitsWaitedFor, uxControlBits;
 51007b8:	e3a07000 	mov	r7, #0
                    vTaskRemoveFromUnorderedEventList( pxListItem, pxEventBits->uxEventBits | eventUNBLOCKED_DUE_TO_BIT_SET );
 51007bc:	e3405510 	movt	r5, #1296	; 0x510
 51007c0:	ea000007 	b	51007e4 <xEventGroupSetBits+0x70>
                    if( ( uxBitsWaitedFor & pxEventBits->uxEventBits ) != ( EventBits_t ) 0 )
 51007c4:	e11c0003 	tst	ip, r3
 51007c8:	0a000003 	beq	51007dc <xEventGroupSetBits+0x68>
                    if( ( uxControlBits & eventCLEAR_EVENTS_ON_EXIT_BIT ) != ( EventBits_t ) 0 )
 51007cc:	e3120401 	tst	r2, #16777216	; 0x1000000
                        uxBitsToClear |= uxBitsWaitedFor;
 51007d0:	1187700c 	orrne	r7, r7, ip
                    vTaskRemoveFromUnorderedEventList( pxListItem, pxEventBits->uxEventBits | eventUNBLOCKED_DUE_TO_BIT_SET );
 51007d4:	e12fff35 	blx	r5
            pxEventBits->uxEventBits &= ~uxBitsToClear;
 51007d8:	e5963000 	ldr	r3, [r6]
            while( pxListItem != pxListEnd )
 51007dc:	e1580004 	cmp	r8, r4
 51007e0:	0a00000a 	beq	5100810 <xEventGroupSetBits+0x9c>
                    if( ( uxControlBits & eventCLEAR_EVENTS_ON_EXIT_BIT ) != ( EventBits_t ) 0 )
 51007e4:	e1a00004 	mov	r0, r4
                    vTaskRemoveFromUnorderedEventList( pxListItem, pxEventBits->uxEventBits | eventUNBLOCKED_DUE_TO_BIT_SET );
 51007e8:	e3831402 	orr	r1, r3, #33554432	; 0x2000000
                pxNext = listGET_NEXT( pxListItem );
 51007ec:	e5944004 	ldr	r4, [r4, #4]
                uxBitsWaitedFor = listGET_LIST_ITEM_VALUE( pxListItem );
 51007f0:	e5902000 	ldr	r2, [r0]
                if( ( uxControlBits & eventWAIT_FOR_ALL_BITS ) == ( EventBits_t ) 0 )
 51007f4:	e3120301 	tst	r2, #67108864	; 0x4000000
                uxBitsWaitedFor &= ~eventEVENT_BITS_CONTROL_BYTES;
 51007f8:	e3c2c4ff 	bic	ip, r2, #-16777216	; 0xff000000
                if( ( uxControlBits & eventWAIT_FOR_ALL_BITS ) == ( EventBits_t ) 0 )
 51007fc:	0afffff0 	beq	51007c4 <xEventGroupSetBits+0x50>
                else if( ( uxBitsWaitedFor & pxEventBits->uxEventBits ) == uxBitsWaitedFor )
 5100800:	e1dce003 	bics	lr, ip, r3
 5100804:	0afffff0 	beq	51007cc <xEventGroupSetBits+0x58>
            while( pxListItem != pxListEnd )
 5100808:	e1580004 	cmp	r8, r4
 510080c:	1afffff4 	bne	51007e4 <xEventGroupSetBits+0x70>
            pxEventBits->uxEventBits &= ~uxBitsToClear;
 5100810:	e1c33007 	bic	r3, r3, r7
 5100814:	e5863000 	str	r3, [r6]
        ( void ) xTaskResumeAll();
 5100818:	e3052efc 	movw	r2, #24316	; 0x5efc
 510081c:	e3402510 	movt	r2, #1296	; 0x510
 5100820:	e12fff32 	blx	r2
    }
 5100824:	e5960000 	ldr	r0, [r6]
 5100828:	e8bd81f0 	pop	{r4, r5, r6, r7, r8, pc}
        configASSERT( ( uxBitsToSet & eventEVENT_BITS_CONTROL_BYTES ) == 0 );
 510082c:	e30d0a4c 	movw	r0, #55884	; 0xda4c
 5100830:	e3003900 	movw	r3, #2304	; 0x900
 5100834:	e3001233 	movw	r1, #563	; 0x233
 5100838:	e3403511 	movt	r3, #1297	; 0x511
 510083c:	e3400512 	movt	r0, #1298	; 0x512
 5100840:	e12fff33 	blx	r3
 5100844:	eaffffd0 	b	510078c <xEventGroupSetBits+0x18>
        configASSERT( xEventGroup );
 5100848:	e30d0a4c 	movw	r0, #55884	; 0xda4c
 510084c:	e3003900 	movw	r3, #2304	; 0x900
 5100850:	e3001232 	movw	r1, #562	; 0x232
 5100854:	e3403511 	movt	r3, #1297	; 0x511
 5100858:	e3400512 	movt	r0, #1298	; 0x512
 510085c:	e12fff33 	blx	r3
 5100860:	eaffffc7 	b	5100784 <xEventGroupSetBits+0x10>

05100864 <xEventGroupSync>:
        configASSERT( ( uxBitsToWaitFor & eventEVENT_BITS_CONTROL_BYTES ) == 0 );
 5100864:	e31204ff 	tst	r2, #-16777216	; 0xff000000
    {
 5100868:	e92d41f0 	push	{r4, r5, r6, r7, r8, lr}
 510086c:	e1a06002 	mov	r6, r2
 5100870:	e1a05000 	mov	r5, r0
 5100874:	e1a07001 	mov	r7, r1
 5100878:	e1a08003 	mov	r8, r3
        configASSERT( ( uxBitsToWaitFor & eventEVENT_BITS_CONTROL_BYTES ) == 0 );
 510087c:	1a000055 	bne	51009d8 <xEventGroupSync+0x174>
        configASSERT( uxBitsToWaitFor != 0 );
 5100880:	e3520000 	cmp	r2, #0
 5100884:	0a000038 	beq	510096c <xEventGroupSync+0x108>
            configASSERT( !( ( xTaskGetSchedulerState() == taskSCHEDULER_SUSPENDED ) && ( xTicksToWait != 0 ) ) );
 5100888:	e3063e28 	movw	r3, #28200	; 0x6e28
 510088c:	e3403510 	movt	r3, #1296	; 0x510
 5100890:	e12fff33 	blx	r3
 5100894:	e3500000 	cmp	r0, #0
 5100898:	1a000013 	bne	51008ec <xEventGroupSync+0x88>
 510089c:	e3580000 	cmp	r8, #0
 51008a0:	13004900 	movwne	r4, #2304	; 0x900
 51008a4:	13404511 	movtne	r4, #1297	; 0x511
 51008a8:	1a000053 	bne	51009fc <xEventGroupSync+0x198>
        vTaskSuspendAll();
 51008ac:	e30532a0 	movw	r3, #21152	; 0x52a0
 51008b0:	e3403510 	movt	r3, #1296	; 0x510
 51008b4:	e12fff33 	blx	r3
            uxOriginalBitValue = pxEventBits->uxEventBits;
 51008b8:	e5954000 	ldr	r4, [r5]
            ( void ) xEventGroupSetBits( xEventGroup, uxBitsToSet );
 51008bc:	e1a01007 	mov	r1, r7
 51008c0:	e1a00005 	mov	r0, r5
            if( ( ( uxOriginalBitValue | uxBitsToSet ) & uxBitsToWaitFor ) == uxBitsToWaitFor )
 51008c4:	e1874004 	orr	r4, r7, r4
            ( void ) xEventGroupSetBits( xEventGroup, uxBitsToSet );
 51008c8:	ebffffa9 	bl	5100774 <xEventGroupSetBits>
            if( ( ( uxOriginalBitValue | uxBitsToSet ) & uxBitsToWaitFor ) == uxBitsToWaitFor )
 51008cc:	e1d63004 	bics	r3, r6, r4
 51008d0:	0a000038 	beq	51009b8 <xEventGroupSync+0x154>
                    uxReturn = pxEventBits->uxEventBits;
 51008d4:	e5954000 	ldr	r4, [r5]
        xAlreadyYielded = xTaskResumeAll();
 51008d8:	e3053efc 	movw	r3, #24316	; 0x5efc
 51008dc:	e3403510 	movt	r3, #1296	; 0x510
 51008e0:	e12fff33 	blx	r3
    }
 51008e4:	e1a00004 	mov	r0, r4
 51008e8:	e8bd81f0 	pop	{r4, r5, r6, r7, r8, pc}
        vTaskSuspendAll();
 51008ec:	e30532a0 	movw	r3, #21152	; 0x52a0
 51008f0:	e3403510 	movt	r3, #1296	; 0x510
 51008f4:	e12fff33 	blx	r3
            uxOriginalBitValue = pxEventBits->uxEventBits;
 51008f8:	e5954000 	ldr	r4, [r5]
            ( void ) xEventGroupSetBits( xEventGroup, uxBitsToSet );
 51008fc:	e1a01007 	mov	r1, r7
 5100900:	e1a00005 	mov	r0, r5
            if( ( ( uxOriginalBitValue | uxBitsToSet ) & uxBitsToWaitFor ) == uxBitsToWaitFor )
 5100904:	e1844007 	orr	r4, r4, r7
            ( void ) xEventGroupSetBits( xEventGroup, uxBitsToSet );
 5100908:	ebffff99 	bl	5100774 <xEventGroupSetBits>
            if( ( ( uxOriginalBitValue | uxBitsToSet ) & uxBitsToWaitFor ) == uxBitsToWaitFor )
 510090c:	e1d63004 	bics	r3, r6, r4
 5100910:	0a000028 	beq	51009b8 <xEventGroupSync+0x154>
                if( xTicksToWait != ( TickType_t ) 0 )
 5100914:	e3580000 	cmp	r8, #0
 5100918:	0affffed 	beq	51008d4 <xEventGroupSync+0x70>
                    vTaskPlaceOnUnorderedEventList( &( pxEventBits->xTasksWaitingForBits ), ( uxBitsToWaitFor | eventCLEAR_EVENTS_ON_EXIT_BIT | eventWAIT_FOR_ALL_BITS ), xTicksToWait );
 510091c:	e3063774 	movw	r3, #26484	; 0x6774
 5100920:	e1a02008 	mov	r2, r8
 5100924:	e3861405 	orr	r1, r6, #83886080	; 0x5000000
 5100928:	e2850004 	add	r0, r5, #4
 510092c:	e3403510 	movt	r3, #1296	; 0x510
 5100930:	e12fff33 	blx	r3
        xAlreadyYielded = xTaskResumeAll();
 5100934:	e3053efc 	movw	r3, #24316	; 0x5efc
 5100938:	e3403510 	movt	r3, #1296	; 0x510
 510093c:	e12fff33 	blx	r3
            if( xAlreadyYielded == pdFALSE )
 5100940:	e3500000 	cmp	r0, #0
 5100944:	0a000046 	beq	5100a64 <xEventGroupSync+0x200>
            uxReturn = uxTaskResetEventItemValue();
 5100948:	e3063dc4 	movw	r3, #28100	; 0x6dc4
 510094c:	e3403510 	movt	r3, #1296	; 0x510
 5100950:	e12fff33 	blx	r3
 5100954:	e1a04000 	mov	r4, r0
            if( ( uxReturn & eventUNBLOCKED_DUE_TO_BIT_SET ) == ( EventBits_t ) 0 )
 5100958:	e3100402 	tst	r0, #33554432	; 0x2000000
 510095c:	0a000035 	beq	5100a38 <xEventGroupSync+0x1d4>
            uxReturn &= ~eventEVENT_BITS_CONTROL_BYTES;
 5100960:	e3c444ff 	bic	r4, r4, #-16777216	; 0xff000000
    }
 5100964:	e1a00004 	mov	r0, r4
 5100968:	e8bd81f0 	pop	{r4, r5, r6, r7, r8, pc}
        configASSERT( uxBitsToWaitFor != 0 );
 510096c:	e30d0a4c 	movw	r0, #55884	; 0xda4c
 5100970:	e3004900 	movw	r4, #2304	; 0x900
 5100974:	e3a010c6 	mov	r1, #198	; 0xc6
 5100978:	e3400512 	movt	r0, #1298	; 0x512
 510097c:	e3404511 	movt	r4, #1297	; 0x511
 5100980:	e12fff34 	blx	r4
            configASSERT( !( ( xTaskGetSchedulerState() == taskSCHEDULER_SUSPENDED ) && ( xTicksToWait != 0 ) ) );
 5100984:	e3063e28 	movw	r3, #28200	; 0x6e28
 5100988:	e3403510 	movt	r3, #1296	; 0x510
 510098c:	e12fff33 	blx	r3
 5100990:	e3500000 	cmp	r0, #0
 5100994:	0a000016 	beq	51009f4 <xEventGroupSync+0x190>
        vTaskSuspendAll();
 5100998:	e30532a0 	movw	r3, #21152	; 0x52a0
 510099c:	e3403510 	movt	r3, #1296	; 0x510
 51009a0:	e12fff33 	blx	r3
            uxOriginalBitValue = pxEventBits->uxEventBits;
 51009a4:	e5954000 	ldr	r4, [r5]
            ( void ) xEventGroupSetBits( xEventGroup, uxBitsToSet );
 51009a8:	e1a01007 	mov	r1, r7
 51009ac:	e1a00005 	mov	r0, r5
            if( ( ( uxOriginalBitValue | uxBitsToSet ) & uxBitsToWaitFor ) == uxBitsToWaitFor )
 51009b0:	e1874004 	orr	r4, r7, r4
            ( void ) xEventGroupSetBits( xEventGroup, uxBitsToSet );
 51009b4:	ebffff6e 	bl	5100774 <xEventGroupSetBits>
                pxEventBits->uxEventBits &= ~uxBitsToWaitFor;
 51009b8:	e5952000 	ldr	r2, [r5]
        xAlreadyYielded = xTaskResumeAll();
 51009bc:	e3053efc 	movw	r3, #24316	; 0x5efc
 51009c0:	e3403510 	movt	r3, #1296	; 0x510
                pxEventBits->uxEventBits &= ~uxBitsToWaitFor;
 51009c4:	e1c26006 	bic	r6, r2, r6
 51009c8:	e5856000 	str	r6, [r5]
        xAlreadyYielded = xTaskResumeAll();
 51009cc:	e12fff33 	blx	r3
    }
 51009d0:	e1a00004 	mov	r0, r4
 51009d4:	e8bd81f0 	pop	{r4, r5, r6, r7, r8, pc}
        configASSERT( ( uxBitsToWaitFor & eventEVENT_BITS_CONTROL_BYTES ) == 0 );
 51009d8:	e30d0a4c 	movw	r0, #55884	; 0xda4c
 51009dc:	e3004900 	movw	r4, #2304	; 0x900
 51009e0:	e3a010c5 	mov	r1, #197	; 0xc5
 51009e4:	e3404511 	movt	r4, #1297	; 0x511
 51009e8:	e3400512 	movt	r0, #1298	; 0x512
 51009ec:	e12fff34 	blx	r4
        configASSERT( uxBitsToWaitFor != 0 );
 51009f0:	eaffffa4 	b	5100888 <xEventGroupSync+0x24>
            configASSERT( !( ( xTaskGetSchedulerState() == taskSCHEDULER_SUSPENDED ) && ( xTicksToWait != 0 ) ) );
 51009f4:	e3580000 	cmp	r8, #0
 51009f8:	0affffe6 	beq	5100998 <xEventGroupSync+0x134>
 51009fc:	e30d0a4c 	movw	r0, #55884	; 0xda4c
 5100a00:	e3a010c9 	mov	r1, #201	; 0xc9
 5100a04:	e3400512 	movt	r0, #1298	; 0x512
 5100a08:	e12fff34 	blx	r4
        vTaskSuspendAll();
 5100a0c:	e30532a0 	movw	r3, #21152	; 0x52a0
 5100a10:	e3403510 	movt	r3, #1296	; 0x510
 5100a14:	e12fff33 	blx	r3
            uxOriginalBitValue = pxEventBits->uxEventBits;
 5100a18:	e5954000 	ldr	r4, [r5]
            ( void ) xEventGroupSetBits( xEventGroup, uxBitsToSet );
 5100a1c:	e1a01007 	mov	r1, r7
 5100a20:	e1a00005 	mov	r0, r5
            if( ( ( uxOriginalBitValue | uxBitsToSet ) & uxBitsToWaitFor ) == uxBitsToWaitFor )
 5100a24:	e1874004 	orr	r4, r7, r4
            ( void ) xEventGroupSetBits( xEventGroup, uxBitsToSet );
 5100a28:	ebffff51 	bl	5100774 <xEventGroupSetBits>
            if( ( ( uxOriginalBitValue | uxBitsToSet ) & uxBitsToWaitFor ) == uxBitsToWaitFor )
 5100a2c:	e1d63004 	bics	r3, r6, r4
 5100a30:	1affffb9 	bne	510091c <xEventGroupSync+0xb8>
 5100a34:	eaffffdf 	b	51009b8 <xEventGroupSync+0x154>
                taskENTER_CRITICAL();
 5100a38:	e30c3930 	movw	r3, #51504	; 0xc930
 5100a3c:	e3403510 	movt	r3, #1296	; 0x510
 5100a40:	e12fff33 	blx	r3
                    uxReturn = pxEventBits->uxEventBits;
 5100a44:	e5954000 	ldr	r4, [r5]
                    if( ( uxReturn & uxBitsToWaitFor ) == uxBitsToWaitFor )
 5100a48:	e1d63004 	bics	r3, r6, r4
                taskEXIT_CRITICAL();
 5100a4c:	e30c3988 	movw	r3, #51592	; 0xc988
                        pxEventBits->uxEventBits &= ~uxBitsToWaitFor;
 5100a50:	01c46006 	biceq	r6, r4, r6
                taskEXIT_CRITICAL();
 5100a54:	e3403510 	movt	r3, #1296	; 0x510
                        pxEventBits->uxEventBits &= ~uxBitsToWaitFor;
 5100a58:	05856000 	streq	r6, [r5]
                taskEXIT_CRITICAL();
 5100a5c:	e12fff33 	blx	r3
                xTimeoutOccurred = pdTRUE;
 5100a60:	eaffffbe 	b	5100960 <xEventGroupSync+0xfc>
                taskYIELD_WITHIN_API();
 5100a64:	e3003000 	movw	r3, #0
 5100a68:	e3403511 	movt	r3, #1297	; 0x511
 5100a6c:	e12fff33 	blx	r3
 5100a70:	eaffffb4 	b	5100948 <xEventGroupSync+0xe4>

05100a74 <xEventGroupGetBitsFromISR>:
    }
 5100a74:	e5900000 	ldr	r0, [r0]
 5100a78:	e12fff1e 	bx	lr

05100a7c <vEventGroupDelete>:
    {
 5100a7c:	e92d41f0 	push	{r4, r5, r6, r7, r8, lr}
        configASSERT( pxEventBits );
 5100a80:	e2504000 	subs	r4, r0, #0
 5100a84:	0a000025 	beq	5100b20 <vEventGroupDelete+0xa4>
        vTaskSuspendAll();
 5100a88:	e30532a0 	movw	r3, #21152	; 0x52a0
 5100a8c:	e3403510 	movt	r3, #1296	; 0x510
 5100a90:	e12fff33 	blx	r3
            while( listCURRENT_LIST_LENGTH( pxTasksWaitingForBits ) > ( UBaseType_t ) 0 )
 5100a94:	e5943004 	ldr	r3, [r4, #4]
 5100a98:	e3530000 	cmp	r3, #0
 5100a9c:	0a000014 	beq	5100af4 <vEventGroupDelete+0x78>
 5100aa0:	e3065a2c 	movw	r5, #27180	; 0x6a2c
                configASSERT( pxTasksWaitingForBits->xListEnd.pxNext != ( const ListItem_t * ) &( pxTasksWaitingForBits->xListEnd ) );
 5100aa4:	e30d8a4c 	movw	r8, #55884	; 0xda4c
 5100aa8:	e3007900 	movw	r7, #2304	; 0x900
 5100aac:	e284600c 	add	r6, r4, #12
 5100ab0:	e3405510 	movt	r5, #1296	; 0x510
 5100ab4:	e3408512 	movt	r8, #1298	; 0x512
 5100ab8:	e3407511 	movt	r7, #1297	; 0x511
 5100abc:	ea000004 	b	5100ad4 <vEventGroupDelete+0x58>
                vTaskRemoveFromUnorderedEventList( pxTasksWaitingForBits->xListEnd.pxNext, eventUNBLOCKED_DUE_TO_BIT_SET );
 5100ac0:	e3a01402 	mov	r1, #33554432	; 0x2000000
 5100ac4:	e12fff35 	blx	r5
            while( listCURRENT_LIST_LENGTH( pxTasksWaitingForBits ) > ( UBaseType_t ) 0 )
 5100ac8:	e5943004 	ldr	r3, [r4, #4]
 5100acc:	e3530000 	cmp	r3, #0
 5100ad0:	0a000007 	beq	5100af4 <vEventGroupDelete+0x78>
                configASSERT( pxTasksWaitingForBits->xListEnd.pxNext != ( const ListItem_t * ) &( pxTasksWaitingForBits->xListEnd ) );
 5100ad4:	e5940010 	ldr	r0, [r4, #16]
 5100ad8:	e1500006 	cmp	r0, r6
 5100adc:	1afffff7 	bne	5100ac0 <vEventGroupDelete+0x44>
 5100ae0:	e300129a 	movw	r1, #666	; 0x29a
 5100ae4:	e1a00008 	mov	r0, r8
 5100ae8:	e12fff37 	blx	r7
                vTaskRemoveFromUnorderedEventList( pxTasksWaitingForBits->xListEnd.pxNext, eventUNBLOCKED_DUE_TO_BIT_SET );
 5100aec:	e5940010 	ldr	r0, [r4, #16]
 5100af0:	eafffff2 	b	5100ac0 <vEventGroupDelete+0x44>
        ( void ) xTaskResumeAll();
 5100af4:	e3053efc 	movw	r3, #24316	; 0x5efc
 5100af8:	e3403510 	movt	r3, #1296	; 0x510
 5100afc:	e12fff33 	blx	r3
            if( pxEventBits->ucStaticallyAllocated == ( uint8_t ) pdFALSE )
 5100b00:	e5d43018 	ldrb	r3, [r4, #24]
 5100b04:	e3530000 	cmp	r3, #0
 5100b08:	18bd81f0 	popne	{r4, r5, r6, r7, r8, pc}
                vPortFree( pxEventBits );
 5100b0c:	e308333c 	movw	r3, #33596	; 0x833c
 5100b10:	e1a00004 	mov	r0, r4
 5100b14:	e3403510 	movt	r3, #1296	; 0x510
 5100b18:	e12fff33 	blx	r3
    }
 5100b1c:	e8bd81f0 	pop	{r4, r5, r6, r7, r8, pc}
        configASSERT( pxEventBits );
 5100b20:	e30d0a4c 	movw	r0, #55884	; 0xda4c
 5100b24:	e3003900 	movw	r3, #2304	; 0x900
 5100b28:	e300128e 	movw	r1, #654	; 0x28e
 5100b2c:	e3403511 	movt	r3, #1297	; 0x511
 5100b30:	e3400512 	movt	r0, #1298	; 0x512
 5100b34:	e12fff33 	blx	r3
 5100b38:	eaffffd2 	b	5100a88 <vEventGroupDelete+0xc>

05100b3c <xEventGroupGetStaticBuffer>:
        {
 5100b3c:	e92d4070 	push	{r4, r5, r6, lr}
 5100b40:	e1a05001 	mov	r5, r1
            configASSERT( pxEventBits );
 5100b44:	e2504000 	subs	r4, r0, #0
 5100b48:	0a000006 	beq	5100b68 <xEventGroupGetStaticBuffer+0x2c>
            configASSERT( ppxEventGroupBuffer );
 5100b4c:	e3550000 	cmp	r5, #0
 5100b50:	0a00000c 	beq	5100b88 <xEventGroupGetStaticBuffer+0x4c>
                if( pxEventBits->ucStaticallyAllocated == ( uint8_t ) pdTRUE )
 5100b54:	e5d40018 	ldrb	r0, [r4, #24]
 5100b58:	e3500001 	cmp	r0, #1
                    xReturn = pdFALSE;
 5100b5c:	13a00000 	movne	r0, #0
                    *ppxEventGroupBuffer = ( StaticEventGroup_t * ) pxEventBits;
 5100b60:	05854000 	streq	r4, [r5]
        }
 5100b64:	e8bd8070 	pop	{r4, r5, r6, pc}
            configASSERT( pxEventBits );
 5100b68:	e30d0a4c 	movw	r0, #55884	; 0xda4c
 5100b6c:	e3003900 	movw	r3, #2304	; 0x900
 5100b70:	e30012c2 	movw	r1, #706	; 0x2c2
 5100b74:	e3400512 	movt	r0, #1298	; 0x512
 5100b78:	e3403511 	movt	r3, #1297	; 0x511
 5100b7c:	e12fff33 	blx	r3
            configASSERT( ppxEventGroupBuffer );
 5100b80:	e3550000 	cmp	r5, #0
 5100b84:	1afffff2 	bne	5100b54 <xEventGroupGetStaticBuffer+0x18>
 5100b88:	e30d0a4c 	movw	r0, #55884	; 0xda4c
 5100b8c:	e3003900 	movw	r3, #2304	; 0x900
 5100b90:	e30012c3 	movw	r1, #707	; 0x2c3
 5100b94:	e3403511 	movt	r3, #1297	; 0x511
 5100b98:	e3400512 	movt	r0, #1298	; 0x512
 5100b9c:	e12fff33 	blx	r3
 5100ba0:	eaffffeb 	b	5100b54 <xEventGroupGetStaticBuffer+0x18>

05100ba4 <vEventGroupSetBitsCallback>:
    {
 5100ba4:	e92d4010 	push	{r4, lr}
        ( void ) xEventGroupSetBits( pvEventGroup, ( EventBits_t ) ulBitsToSet );
 5100ba8:	ebfffef1 	bl	5100774 <xEventGroupSetBits>
    }
 5100bac:	e8bd8010 	pop	{r4, pc}

05100bb0 <vEventGroupClearBitsCallback>:
    {
 5100bb0:	e92d4070 	push	{r4, r5, r6, lr}
 5100bb4:	e1a05001 	mov	r5, r1
        configASSERT( xEventGroup );
 5100bb8:	e2504000 	subs	r4, r0, #0
 5100bbc:	0a000012 	beq	5100c0c <vEventGroupClearBitsCallback+0x5c>
        configASSERT( ( uxBitsToClear & eventEVENT_BITS_CONTROL_BYTES ) == 0 );
 5100bc0:	e31504ff 	tst	r5, #-16777216	; 0xff000000
 5100bc4:	1a000009 	bne	5100bf0 <vEventGroupClearBitsCallback+0x40>
        taskENTER_CRITICAL();
 5100bc8:	e30c3930 	movw	r3, #51504	; 0xc930
 5100bcc:	e3403510 	movt	r3, #1296	; 0x510
 5100bd0:	e12fff33 	blx	r3
            pxEventBits->uxEventBits &= ~uxBitsToClear;
 5100bd4:	e5941000 	ldr	r1, [r4]
        taskEXIT_CRITICAL();
 5100bd8:	e30c3988 	movw	r3, #51592	; 0xc988
            pxEventBits->uxEventBits &= ~uxBitsToClear;
 5100bdc:	e1c15005 	bic	r5, r1, r5
        taskEXIT_CRITICAL();
 5100be0:	e3403510 	movt	r3, #1296	; 0x510
            pxEventBits->uxEventBits &= ~uxBitsToClear;
 5100be4:	e5845000 	str	r5, [r4]
        taskEXIT_CRITICAL();
 5100be8:	e12fff33 	blx	r3
    }
 5100bec:	e8bd8070 	pop	{r4, r5, r6, pc}
        configASSERT( ( uxBitsToClear & eventEVENT_BITS_CONTROL_BYTES ) == 0 );
 5100bf0:	e30d0a4c 	movw	r0, #55884	; 0xda4c
 5100bf4:	e3003900 	movw	r3, #2304	; 0x900
 5100bf8:	e30011e3 	movw	r1, #483	; 0x1e3
 5100bfc:	e3403511 	movt	r3, #1297	; 0x511
 5100c00:	e3400512 	movt	r0, #1298	; 0x512
 5100c04:	e12fff33 	blx	r3
 5100c08:	eaffffee 	b	5100bc8 <vEventGroupClearBitsCallback+0x18>
        configASSERT( xEventGroup );
 5100c0c:	e30d0a4c 	movw	r0, #55884	; 0xda4c
 5100c10:	e3003900 	movw	r3, #2304	; 0x900
 5100c14:	e30011e2 	movw	r1, #482	; 0x1e2
 5100c18:	e3403511 	movt	r3, #1297	; 0x511
 5100c1c:	e3400512 	movt	r0, #1298	; 0x512
 5100c20:	e12fff33 	blx	r3
 5100c24:	eaffffe5 	b	5100bc0 <vEventGroupClearBitsCallback+0x10>

05100c28 <vListInitialise>:
    traceENTER_vListInitialise( pxList );

    /* The list structure contains a list item which is used to mark the
     * end of the list.  To initialise the list the list end is inserted
     * as the only list entry. */
    pxList->pxIndex = ( ListItem_t * ) &( pxList->xListEnd );
 5100c28:	e2803008 	add	r3, r0, #8
        pxList->xListEnd.pxContainer = NULL;
        listSET_SECOND_LIST_ITEM_INTEGRITY_CHECK_VALUE( &( pxList->xListEnd ) );
    }
    #endif

    pxList->uxNumberOfItems = ( UBaseType_t ) 0U;
 5100c2c:	e3a02000 	mov	r2, #0
    pxList->xListEnd.xItemValue = portMAX_DELAY;
 5100c30:	e3e01000 	mvn	r1, #0
    pxList->xListEnd.pxNext = ( ListItem_t * ) &( pxList->xListEnd );
 5100c34:	e580300c 	str	r3, [r0, #12]
    pxList->xListEnd.xItemValue = portMAX_DELAY;
 5100c38:	e5801008 	str	r1, [r0, #8]
    pxList->pxIndex = ( ListItem_t * ) &( pxList->xListEnd );
 5100c3c:	e1c020f0 	strd	r2, [r0]
    pxList->xListEnd.pxPrevious = ( ListItem_t * ) &( pxList->xListEnd );
 5100c40:	e5803010 	str	r3, [r0, #16]
     * configUSE_LIST_DATA_INTEGRITY_CHECK_BYTES is set to 1. */
    listSET_LIST_INTEGRITY_CHECK_1_VALUE( pxList );
    listSET_LIST_INTEGRITY_CHECK_2_VALUE( pxList );

    traceRETURN_vListInitialise();
}
 5100c44:	e12fff1e 	bx	lr

05100c48 <vListInitialiseItem>:
void vListInitialiseItem( ListItem_t * const pxItem )
{
    traceENTER_vListInitialiseItem( pxItem );

    /* Make sure the list item is not recorded as being on a list. */
    pxItem->pxContainer = NULL;
 5100c48:	e3a03000 	mov	r3, #0
 5100c4c:	e5803010 	str	r3, [r0, #16]
     * configUSE_LIST_DATA_INTEGRITY_CHECK_BYTES is set to 1. */
    listSET_FIRST_LIST_ITEM_INTEGRITY_CHECK_VALUE( pxItem );
    listSET_SECOND_LIST_ITEM_INTEGRITY_CHECK_VALUE( pxItem );

    traceRETURN_vListInitialiseItem();
}
 5100c50:	e12fff1e 	bx	lr

05100c54 <vListInsert>:
}
/*-----------------------------------------------------------*/

void vListInsert( List_t * const pxList,
                  ListItem_t * const pxNewListItem )
{
 5100c54:	e52de004 	push	{lr}		; (str lr, [sp, #-4]!)
    ListItem_t * pxIterator;
    const TickType_t xValueOfInsertion = pxNewListItem->xItemValue;
 5100c58:	e591e000 	ldr	lr, [r1]
     * new list item should be placed after it.  This ensures that TCBs which are
     * stored in ready lists (all of which have the same xItemValue value) get a
     * share of the CPU.  However, if the xItemValue is the same as the back marker
     * the iteration loop below will not end.  Therefore the value is checked
     * first, and the algorithm slightly modified if necessary. */
    if( xValueOfInsertion == portMAX_DELAY )
 5100c5c:	e37e0001 	cmn	lr, #1
        *   5) If the FreeRTOS port supports interrupt nesting then ensure that
        *      the priority of the tick interrupt is at or below
        *      configMAX_SYSCALL_INTERRUPT_PRIORITY.
        **********************************************************************/

        for( pxIterator = ( ListItem_t * ) &( pxList->xListEnd ); pxIterator->pxNext->xItemValue <= xValueOfInsertion; pxIterator = pxIterator->pxNext )
 5100c60:	12803008 	addne	r3, r0, #8
    if( xValueOfInsertion == portMAX_DELAY )
 5100c64:	0a00000d 	beq	5100ca0 <vListInsert+0x4c>
        for( pxIterator = ( ListItem_t * ) &( pxList->xListEnd ); pxIterator->pxNext->xItemValue <= xValueOfInsertion; pxIterator = pxIterator->pxNext )
 5100c68:	e1a0c003 	mov	ip, r3
 5100c6c:	e5933004 	ldr	r3, [r3, #4]
 5100c70:	e5932000 	ldr	r2, [r3]
 5100c74:	e152000e 	cmp	r2, lr
 5100c78:	9afffffa 	bls	5100c68 <vListInsert+0x14>

    /* Remember which list the item is in.  This allows fast removal of the
     * item later. */
    pxNewListItem->pxContainer = pxList;

    ( pxList->uxNumberOfItems ) = ( UBaseType_t ) ( pxList->uxNumberOfItems + 1U );
 5100c7c:	e5902000 	ldr	r2, [r0]
    pxNewListItem->pxNext = pxIterator->pxNext;
 5100c80:	e5813004 	str	r3, [r1, #4]
    pxNewListItem->pxNext->pxPrevious = pxNewListItem;
 5100c84:	e5831008 	str	r1, [r3, #8]
    ( pxList->uxNumberOfItems ) = ( UBaseType_t ) ( pxList->uxNumberOfItems + 1U );
 5100c88:	e2823001 	add	r3, r2, #1
    pxNewListItem->pxPrevious = pxIterator;
 5100c8c:	e581c008 	str	ip, [r1, #8]
    pxIterator->pxNext = pxNewListItem;
 5100c90:	e58c1004 	str	r1, [ip, #4]
    pxNewListItem->pxContainer = pxList;
 5100c94:	e5810010 	str	r0, [r1, #16]
    ( pxList->uxNumberOfItems ) = ( UBaseType_t ) ( pxList->uxNumberOfItems + 1U );
 5100c98:	e5803000 	str	r3, [r0]

    traceRETURN_vListInsert();
}
 5100c9c:	e49df004 	pop	{pc}		; (ldr pc, [sp], #4)
        pxIterator = pxList->xListEnd.pxPrevious;
 5100ca0:	e590c010 	ldr	ip, [r0, #16]
    pxNewListItem->pxNext = pxIterator->pxNext;
 5100ca4:	e59c3004 	ldr	r3, [ip, #4]
 5100ca8:	eafffff3 	b	5100c7c <vListInsert+0x28>

05100cac <vListInsertEnd>:
    ( pxList->uxNumberOfItems ) = ( UBaseType_t ) ( pxList->uxNumberOfItems + 1U );
 5100cac:	e1c020d0 	ldrd	r2, [r0]
    pxNewListItem->pxNext = pxIndex;
 5100cb0:	e5813004 	str	r3, [r1, #4]
    ( pxList->uxNumberOfItems ) = ( UBaseType_t ) ( pxList->uxNumberOfItems + 1U );
 5100cb4:	e2822001 	add	r2, r2, #1
    pxNewListItem->pxPrevious = pxIndex->pxPrevious;
 5100cb8:	e593c008 	ldr	ip, [r3, #8]
 5100cbc:	e581c008 	str	ip, [r1, #8]
    pxIndex->pxPrevious->pxNext = pxNewListItem;
 5100cc0:	e593c008 	ldr	ip, [r3, #8]
 5100cc4:	e58c1004 	str	r1, [ip, #4]
    pxIndex->pxPrevious = pxNewListItem;
 5100cc8:	e5831008 	str	r1, [r3, #8]
    pxNewListItem->pxContainer = pxList;
 5100ccc:	e5810010 	str	r0, [r1, #16]
    ( pxList->uxNumberOfItems ) = ( UBaseType_t ) ( pxList->uxNumberOfItems + 1U );
 5100cd0:	e5802000 	str	r2, [r0]
}
 5100cd4:	e12fff1e 	bx	lr

05100cd8 <uxListRemove>:

UBaseType_t uxListRemove( ListItem_t * const pxItemToRemove )
{
    /* The list item knows which list it is in.  Obtain the list from the list
     * item. */
    List_t * const pxList = pxItemToRemove->pxContainer;
 5100cd8:	e5902010 	ldr	r2, [r0, #16]

    traceENTER_uxListRemove( pxItemToRemove );

    pxItemToRemove->pxNext->pxPrevious = pxItemToRemove->pxPrevious;
 5100cdc:	e990000a 	ldmib	r0, {r1, r3}
 5100ce0:	e5813008 	str	r3, [r1, #8]
    pxItemToRemove->pxPrevious->pxNext = pxItemToRemove->pxNext;
 5100ce4:	e5831004 	str	r1, [r3, #4]

    /* Only used during decision coverage testing. */
    mtCOVERAGE_TEST_DELAY();

    /* Make sure the index is left pointing to a valid item. */
    if( pxList->pxIndex == pxItemToRemove )
 5100ce8:	e5921004 	ldr	r1, [r2, #4]
 5100cec:	e1510000 	cmp	r1, r0
    else
    {
        mtCOVERAGE_TEST_MARKER();
    }

    pxItemToRemove->pxContainer = NULL;
 5100cf0:	e3a01000 	mov	r1, #0
        pxList->pxIndex = pxItemToRemove->pxPrevious;
 5100cf4:	05823004 	streq	r3, [r2, #4]
    ( pxList->uxNumberOfItems ) = ( UBaseType_t ) ( pxList->uxNumberOfItems - 1U );
 5100cf8:	e5923000 	ldr	r3, [r2]
    pxItemToRemove->pxContainer = NULL;
 5100cfc:	e5801010 	str	r1, [r0, #16]
    ( pxList->uxNumberOfItems ) = ( UBaseType_t ) ( pxList->uxNumberOfItems - 1U );
 5100d00:	e2433001 	sub	r3, r3, #1

    traceRETURN_uxListRemove( pxList->uxNumberOfItems );

    return pxList->uxNumberOfItems;
}
 5100d04:	e1a00003 	mov	r0, r3
    ( pxList->uxNumberOfItems ) = ( UBaseType_t ) ( pxList->uxNumberOfItems - 1U );
 5100d08:	e5823000 	str	r3, [r2]
}
 5100d0c:	e12fff1e 	bx	lr

05100d10 <prvCopyDataToQueue>:
/*-----------------------------------------------------------*/

static BaseType_t prvCopyDataToQueue( Queue_t * const pxQueue,
                                      const void * pvItemToQueue,
                                      const BaseType_t xPosition )
{
 5100d10:	e92d4070 	push	{r4, r5, r6, lr}
 5100d14:	e1a06002 	mov	r6, r2
 5100d18:	e1a04000 	mov	r4, r0

    /* This function is called from a critical section. */

    uxMessagesWaiting = pxQueue->uxMessagesWaiting;

    if( pxQueue->uxItemSize == ( UBaseType_t ) 0 )
 5100d1c:	e5902040 	ldr	r2, [r0, #64]	; 0x40
    uxMessagesWaiting = pxQueue->uxMessagesWaiting;
 5100d20:	e5905038 	ldr	r5, [r0, #56]	; 0x38
    if( pxQueue->uxItemSize == ( UBaseType_t ) 0 )
 5100d24:	e3520000 	cmp	r2, #0
 5100d28:	1a000006 	bne	5100d48 <prvCopyDataToQueue+0x38>
    {
        #if ( configUSE_MUTEXES == 1 )
        {
            if( pxQueue->uxQueueType == queueQUEUE_IS_MUTEX )
 5100d2c:	e5906000 	ldr	r6, [r0]
 5100d30:	e3560000 	cmp	r6, #0
 5100d34:	0a000028 	beq	5100ddc <prvCopyDataToQueue+0xcc>
    BaseType_t xReturn = pdFALSE;
 5100d38:	e3a00000 	mov	r0, #0
        {
            mtCOVERAGE_TEST_MARKER();
        }
    }

    pxQueue->uxMessagesWaiting = ( UBaseType_t ) ( uxMessagesWaiting + ( UBaseType_t ) 1 );
 5100d3c:	e2855001 	add	r5, r5, #1
 5100d40:	e5845038 	str	r5, [r4, #56]	; 0x38

    return xReturn;
}
 5100d44:	e8bd8070 	pop	{r4, r5, r6, pc}
        ( void ) memcpy( ( void * ) pxQueue->pcWriteTo, pvItemToQueue, ( size_t ) pxQueue->uxItemSize );
 5100d48:	e3093ca1 	movw	r3, #40097	; 0x9ca1
    else if( xPosition == queueSEND_TO_BACK )
 5100d4c:	e3560000 	cmp	r6, #0
        ( void ) memcpy( ( void * ) pxQueue->pcWriteTo, pvItemToQueue, ( size_t ) pxQueue->uxItemSize );
 5100d50:	e3403511 	movt	r3, #1297	; 0x511
    else if( xPosition == queueSEND_TO_BACK )
 5100d54:	1a00000e 	bne	5100d94 <prvCopyDataToQueue+0x84>
        ( void ) memcpy( ( void * ) pxQueue->pcWriteTo, pvItemToQueue, ( size_t ) pxQueue->uxItemSize );
 5100d58:	e5900004 	ldr	r0, [r0, #4]
 5100d5c:	e12fff33 	blx	r3
        pxQueue->pcWriteTo += pxQueue->uxItemSize;
 5100d60:	e5943004 	ldr	r3, [r4, #4]
 5100d64:	e5942040 	ldr	r2, [r4, #64]	; 0x40
 5100d68:	e0833002 	add	r3, r3, r2
        if( pxQueue->pcWriteTo >= pxQueue->u.xQueue.pcTail )
 5100d6c:	e5942008 	ldr	r2, [r4, #8]
        pxQueue->pcWriteTo += pxQueue->uxItemSize;
 5100d70:	e5843004 	str	r3, [r4, #4]
        if( pxQueue->pcWriteTo >= pxQueue->u.xQueue.pcTail )
 5100d74:	e1530002 	cmp	r3, r2
 5100d78:	3affffee 	bcc	5100d38 <prvCopyDataToQueue+0x28>
            pxQueue->pcWriteTo = pxQueue->pcHead;
 5100d7c:	e5943000 	ldr	r3, [r4]
    pxQueue->uxMessagesWaiting = ( UBaseType_t ) ( uxMessagesWaiting + ( UBaseType_t ) 1 );
 5100d80:	e2855001 	add	r5, r5, #1
            pxQueue->pcWriteTo = pxQueue->pcHead;
 5100d84:	e5843004 	str	r3, [r4, #4]
    BaseType_t xReturn = pdFALSE;
 5100d88:	e1a00006 	mov	r0, r6
    pxQueue->uxMessagesWaiting = ( UBaseType_t ) ( uxMessagesWaiting + ( UBaseType_t ) 1 );
 5100d8c:	e5845038 	str	r5, [r4, #56]	; 0x38
}
 5100d90:	e8bd8070 	pop	{r4, r5, r6, pc}
        ( void ) memcpy( ( void * ) pxQueue->u.xQueue.pcReadFrom, pvItemToQueue, ( size_t ) pxQueue->uxItemSize );
 5100d94:	e590000c 	ldr	r0, [r0, #12]
 5100d98:	e12fff33 	blx	r3
        pxQueue->u.xQueue.pcReadFrom -= pxQueue->uxItemSize;
 5100d9c:	e5942040 	ldr	r2, [r4, #64]	; 0x40
 5100da0:	e594300c 	ldr	r3, [r4, #12]
 5100da4:	e2621000 	rsb	r1, r2, #0
 5100da8:	e0433002 	sub	r3, r3, r2
        if( pxQueue->u.xQueue.pcReadFrom < pxQueue->pcHead )
 5100dac:	e5942000 	ldr	r2, [r4]
        pxQueue->u.xQueue.pcReadFrom -= pxQueue->uxItemSize;
 5100db0:	e584300c 	str	r3, [r4, #12]
        if( pxQueue->u.xQueue.pcReadFrom < pxQueue->pcHead )
 5100db4:	e1530002 	cmp	r3, r2
            pxQueue->u.xQueue.pcReadFrom = ( pxQueue->u.xQueue.pcTail - pxQueue->uxItemSize );
 5100db8:	35943008 	ldrcc	r3, [r4, #8]
 5100dbc:	30833001 	addcc	r3, r3, r1
 5100dc0:	3584300c 	strcc	r3, [r4, #12]
        if( xPosition == queueOVERWRITE )
 5100dc4:	e3560002 	cmp	r6, #2
 5100dc8:	1affffda 	bne	5100d38 <prvCopyDataToQueue+0x28>
    BaseType_t xReturn = pdFALSE;
 5100dcc:	e3a00000 	mov	r0, #0
 5100dd0:	e3550001 	cmp	r5, #1
 5100dd4:	33a05001 	movcc	r5, #1
 5100dd8:	eaffffd8 	b	5100d40 <prvCopyDataToQueue+0x30>
                xReturn = xTaskPriorityDisinherit( pxQueue->u.xSemaphore.xMutexHolder );
 5100ddc:	e3063f70 	movw	r3, #28528	; 0x6f70
    pxQueue->uxMessagesWaiting = ( UBaseType_t ) ( uxMessagesWaiting + ( UBaseType_t ) 1 );
 5100de0:	e2855001 	add	r5, r5, #1
                xReturn = xTaskPriorityDisinherit( pxQueue->u.xSemaphore.xMutexHolder );
 5100de4:	e5900008 	ldr	r0, [r0, #8]
 5100de8:	e3403510 	movt	r3, #1296	; 0x510
 5100dec:	e12fff33 	blx	r3
                pxQueue->u.xSemaphore.xMutexHolder = NULL;
 5100df0:	e5846008 	str	r6, [r4, #8]
 5100df4:	eaffffd1 	b	5100d40 <prvCopyDataToQueue+0x30>

05100df8 <prvNotifyQueueSetContainer>:
/*-----------------------------------------------------------*/

#if ( configUSE_QUEUE_SETS == 1 )

    static BaseType_t prvNotifyQueueSetContainer( const Queue_t * const pxQueue )
    {
 5100df8:	e92d4070 	push	{r4, r5, r6, lr}
        Queue_t * pxQueueSetContainer = pxQueue->pxQueueSetContainer;
 5100dfc:	e5904048 	ldr	r4, [r0, #72]	; 0x48
    {
 5100e00:	e24dd008 	sub	sp, sp, #8
 5100e04:	e58d0004 	str	r0, [sp, #4]
        /* This function must be called form a critical section. */

        /* The following line is not reachable in unit tests because every call
         * to prvNotifyQueueSetContainer is preceded by a check that
         * pxQueueSetContainer != NULL */
        configASSERT( pxQueueSetContainer ); /* LCOV_EXCL_BR_LINE */
 5100e08:	e3540000 	cmp	r4, #0
 5100e0c:	0a000033 	beq	5100ee0 <prvNotifyQueueSetContainer+0xe8>
        configASSERT( pxQueueSetContainer->uxMessagesWaiting < pxQueueSetContainer->uxLength );
 5100e10:	e5942038 	ldr	r2, [r4, #56]	; 0x38
 5100e14:	e594303c 	ldr	r3, [r4, #60]	; 0x3c
 5100e18:	e1520003 	cmp	r2, r3
 5100e1c:	2a000006 	bcs	5100e3c <prvNotifyQueueSetContainer+0x44>

        if( pxQueueSetContainer->uxMessagesWaiting < pxQueueSetContainer->uxLength )
 5100e20:	e5942038 	ldr	r2, [r4, #56]	; 0x38
 5100e24:	e1520003 	cmp	r2, r3
        BaseType_t xReturn = pdFALSE;
 5100e28:	23a05000 	movcs	r5, #0
        if( pxQueueSetContainer->uxMessagesWaiting < pxQueueSetContainer->uxLength )
 5100e2c:	3a00000d 	bcc	5100e68 <prvNotifyQueueSetContainer+0x70>
        {
            mtCOVERAGE_TEST_MARKER();
        }

        return xReturn;
    }
 5100e30:	e1a00005 	mov	r0, r5
 5100e34:	e28dd008 	add	sp, sp, #8
 5100e38:	e8bd8070 	pop	{r4, r5, r6, pc}
        configASSERT( pxQueueSetContainer->uxMessagesWaiting < pxQueueSetContainer->uxLength );
 5100e3c:	e30d0a74 	movw	r0, #55924	; 0xda74
 5100e40:	e3003900 	movw	r3, #2304	; 0x900
 5100e44:	e3001cf9 	movw	r1, #3321	; 0xcf9
 5100e48:	e3403511 	movt	r3, #1297	; 0x511
 5100e4c:	e3400512 	movt	r0, #1298	; 0x512
 5100e50:	e12fff33 	blx	r3
        if( pxQueueSetContainer->uxMessagesWaiting < pxQueueSetContainer->uxLength )
 5100e54:	e594303c 	ldr	r3, [r4, #60]	; 0x3c
 5100e58:	e5942038 	ldr	r2, [r4, #56]	; 0x38
 5100e5c:	e1520003 	cmp	r2, r3
        BaseType_t xReturn = pdFALSE;
 5100e60:	23a05000 	movcs	r5, #0
        if( pxQueueSetContainer->uxMessagesWaiting < pxQueueSetContainer->uxLength )
 5100e64:	2afffff1 	bcs	5100e30 <prvNotifyQueueSetContainer+0x38>
            xReturn = prvCopyDataToQueue( pxQueueSetContainer, &pxQueue, queueSEND_TO_BACK );
 5100e68:	e3a02000 	mov	r2, #0
 5100e6c:	e28d1004 	add	r1, sp, #4
 5100e70:	e1a00004 	mov	r0, r4
            const int8_t cTxLock = pxQueueSetContainer->cTxLock;
 5100e74:	e5d46045 	ldrb	r6, [r4, #69]	; 0x45
            xReturn = prvCopyDataToQueue( pxQueueSetContainer, &pxQueue, queueSEND_TO_BACK );
 5100e78:	ebffffa4 	bl	5100d10 <prvCopyDataToQueue>
            const int8_t cTxLock = pxQueueSetContainer->cTxLock;
 5100e7c:	e6af6076 	sxtb	r6, r6
            if( cTxLock == queueUNLOCKED )
 5100e80:	e3760001 	cmn	r6, #1
            xReturn = prvCopyDataToQueue( pxQueueSetContainer, &pxQueue, queueSEND_TO_BACK );
 5100e84:	e1a05000 	mov	r5, r0
            if( cTxLock == queueUNLOCKED )
 5100e88:	1a000009 	bne	5100eb4 <prvNotifyQueueSetContainer+0xbc>
                if( listLIST_IS_EMPTY( &( pxQueueSetContainer->xTasksWaitingToReceive ) ) == pdFALSE )
 5100e8c:	e5943024 	ldr	r3, [r4, #36]	; 0x24
 5100e90:	e3530000 	cmp	r3, #0
 5100e94:	0affffe5 	beq	5100e30 <prvNotifyQueueSetContainer+0x38>
                    if( xTaskRemoveFromEventList( &( pxQueueSetContainer->xTasksWaitingToReceive ) ) != pdFALSE )
 5100e98:	e30638d0 	movw	r3, #26832	; 0x68d0
 5100e9c:	e2840024 	add	r0, r4, #36	; 0x24
 5100ea0:	e3403510 	movt	r3, #1296	; 0x510
 5100ea4:	e12fff33 	blx	r3
                        xReturn = pdTRUE;
 5100ea8:	e3500000 	cmp	r0, #0
 5100eac:	13a05001 	movne	r5, #1
 5100eb0:	eaffffde 	b	5100e30 <prvNotifyQueueSetContainer+0x38>
                prvIncrementQueueTxLock( pxQueueSetContainer, cTxLock );
 5100eb4:	e30532d8 	movw	r3, #21208	; 0x52d8
 5100eb8:	e3403510 	movt	r3, #1296	; 0x510
 5100ebc:	e12fff33 	blx	r3
 5100ec0:	e1560000 	cmp	r6, r0
 5100ec4:	2affffd9 	bcs	5100e30 <prvNotifyQueueSetContainer+0x38>
 5100ec8:	e356007f 	cmp	r6, #127	; 0x7f
 5100ecc:	0a00000a 	beq	5100efc <prvNotifyQueueSetContainer+0x104>
 5100ed0:	e2866001 	add	r6, r6, #1
 5100ed4:	e6af6076 	sxtb	r6, r6
 5100ed8:	e5c46045 	strb	r6, [r4, #69]	; 0x45
 5100edc:	eaffffd3 	b	5100e30 <prvNotifyQueueSetContainer+0x38>
        configASSERT( pxQueueSetContainer ); /* LCOV_EXCL_BR_LINE */
 5100ee0:	e30d0a74 	movw	r0, #55924	; 0xda74
 5100ee4:	e3003900 	movw	r3, #2304	; 0x900
 5100ee8:	e3001cf8 	movw	r1, #3320	; 0xcf8
 5100eec:	e3403511 	movt	r3, #1297	; 0x511
 5100ef0:	e3400512 	movt	r0, #1298	; 0x512
 5100ef4:	e12fff33 	blx	r3
 5100ef8:	eaffffc4 	b	5100e10 <prvNotifyQueueSetContainer+0x18>
                prvIncrementQueueTxLock( pxQueueSetContainer, cTxLock );
 5100efc:	e30d0a74 	movw	r0, #55924	; 0xda74
 5100f00:	e3003900 	movw	r3, #2304	; 0x900
 5100f04:	e3001d19 	movw	r1, #3353	; 0xd19
 5100f08:	e3403511 	movt	r3, #1297	; 0x511
 5100f0c:	e3400512 	movt	r0, #1298	; 0x512
 5100f10:	e12fff33 	blx	r3
 5100f14:	eaffffed 	b	5100ed0 <prvNotifyQueueSetContainer+0xd8>

05100f18 <prvUnlockQueue>:
{
 5100f18:	e92d47f0 	push	{r4, r5, r6, r7, r8, r9, sl, lr}
    taskENTER_CRITICAL();
 5100f1c:	e30c9930 	movw	r9, #51504	; 0xc930
{
 5100f20:	e1a05000 	mov	r5, r0
    taskENTER_CRITICAL();
 5100f24:	e3409510 	movt	r9, #1296	; 0x510
 5100f28:	e12fff39 	blx	r9
        int8_t cTxLock = pxQueue->cTxLock;
 5100f2c:	e5d53045 	ldrb	r3, [r5, #69]	; 0x45
 5100f30:	e6af4073 	sxtb	r4, r3
        while( cTxLock > queueLOCKED_UNMODIFIED )
 5100f34:	e3540000 	cmp	r4, #0
 5100f38:	da00001a 	ble	5100fa8 <prvUnlockQueue+0x90>
                        if( xTaskRemoveFromEventList( &( pxQueue->xTasksWaitingToReceive ) ) != pdFALSE )
 5100f3c:	e30668d0 	movw	r6, #26832	; 0x68d0
                        vTaskMissedYield();
 5100f40:	e3067e14 	movw	r7, #28180	; 0x6e14
                        if( xTaskRemoveFromEventList( &( pxQueue->xTasksWaitingToReceive ) ) != pdFALSE )
 5100f44:	e2858024 	add	r8, r5, #36	; 0x24
 5100f48:	e3406510 	movt	r6, #1296	; 0x510
                        vTaskMissedYield();
 5100f4c:	e3407510 	movt	r7, #1296	; 0x510
 5100f50:	ea000007 	b	5100f74 <prvUnlockQueue+0x5c>
                    if( prvNotifyQueueSetContainer( pxQueue ) != pdFALSE )
 5100f54:	ebffffa7 	bl	5100df8 <prvNotifyQueueSetContainer>
 5100f58:	e3500000 	cmp	r0, #0
 5100f5c:	1a00000f 	bne	5100fa0 <prvUnlockQueue+0x88>
            --cTxLock;
 5100f60:	e2443001 	sub	r3, r4, #1
 5100f64:	e6ef2073 	uxtb	r2, r3
        while( cTxLock > queueLOCKED_UNMODIFIED )
 5100f68:	e3520000 	cmp	r2, #0
 5100f6c:	e6af4073 	sxtb	r4, r3
 5100f70:	0a00000c 	beq	5100fa8 <prvUnlockQueue+0x90>
                if( pxQueue->pxQueueSetContainer != NULL )
 5100f74:	e5953048 	ldr	r3, [r5, #72]	; 0x48
                    if( prvNotifyQueueSetContainer( pxQueue ) != pdFALSE )
 5100f78:	e1a00005 	mov	r0, r5
                if( pxQueue->pxQueueSetContainer != NULL )
 5100f7c:	e3530000 	cmp	r3, #0
 5100f80:	1afffff3 	bne	5100f54 <prvUnlockQueue+0x3c>
                    if( listLIST_IS_EMPTY( &( pxQueue->xTasksWaitingToReceive ) ) == pdFALSE )
 5100f84:	e5953024 	ldr	r3, [r5, #36]	; 0x24
                        if( xTaskRemoveFromEventList( &( pxQueue->xTasksWaitingToReceive ) ) != pdFALSE )
 5100f88:	e1a00008 	mov	r0, r8
                    if( listLIST_IS_EMPTY( &( pxQueue->xTasksWaitingToReceive ) ) == pdFALSE )
 5100f8c:	e3530000 	cmp	r3, #0
 5100f90:	0a000004 	beq	5100fa8 <prvUnlockQueue+0x90>
                        if( xTaskRemoveFromEventList( &( pxQueue->xTasksWaitingToReceive ) ) != pdFALSE )
 5100f94:	e12fff36 	blx	r6
 5100f98:	e3500000 	cmp	r0, #0
 5100f9c:	0affffef 	beq	5100f60 <prvUnlockQueue+0x48>
                        vTaskMissedYield();
 5100fa0:	e12fff37 	blx	r7
 5100fa4:	eaffffed 	b	5100f60 <prvUnlockQueue+0x48>
    taskEXIT_CRITICAL();
 5100fa8:	e30c8988 	movw	r8, #51592	; 0xc988
        pxQueue->cTxLock = queueUNLOCKED;
 5100fac:	e3e03000 	mvn	r3, #0
    taskEXIT_CRITICAL();
 5100fb0:	e3408510 	movt	r8, #1296	; 0x510
        pxQueue->cTxLock = queueUNLOCKED;
 5100fb4:	e5c53045 	strb	r3, [r5, #69]	; 0x45
    taskEXIT_CRITICAL();
 5100fb8:	e12fff38 	blx	r8
    taskENTER_CRITICAL();
 5100fbc:	e12fff39 	blx	r9
        int8_t cRxLock = pxQueue->cRxLock;
 5100fc0:	e5d53044 	ldrb	r3, [r5, #68]	; 0x44
 5100fc4:	e6af4073 	sxtb	r4, r3
        while( cRxLock > queueLOCKED_UNMODIFIED )
 5100fc8:	e3540000 	cmp	r4, #0
 5100fcc:	da000013 	ble	5101020 <prvUnlockQueue+0x108>
                if( xTaskRemoveFromEventList( &( pxQueue->xTasksWaitingToSend ) ) != pdFALSE )
 5100fd0:	e30668d0 	movw	r6, #26832	; 0x68d0
                    vTaskMissedYield();
 5100fd4:	e3069e14 	movw	r9, #28180	; 0x6e14
                if( xTaskRemoveFromEventList( &( pxQueue->xTasksWaitingToSend ) ) != pdFALSE )
 5100fd8:	e2857010 	add	r7, r5, #16
 5100fdc:	e3406510 	movt	r6, #1296	; 0x510
                    vTaskMissedYield();
 5100fe0:	e3409510 	movt	r9, #1296	; 0x510
 5100fe4:	ea000004 	b	5100ffc <prvUnlockQueue+0xe4>
                --cRxLock;
 5100fe8:	e2443001 	sub	r3, r4, #1
 5100fec:	e6ef2073 	uxtb	r2, r3
        while( cRxLock > queueLOCKED_UNMODIFIED )
 5100ff0:	e3520000 	cmp	r2, #0
 5100ff4:	e6af4073 	sxtb	r4, r3
 5100ff8:	0a000008 	beq	5101020 <prvUnlockQueue+0x108>
            if( listLIST_IS_EMPTY( &( pxQueue->xTasksWaitingToSend ) ) == pdFALSE )
 5100ffc:	e5953010 	ldr	r3, [r5, #16]
                if( xTaskRemoveFromEventList( &( pxQueue->xTasksWaitingToSend ) ) != pdFALSE )
 5101000:	e1a00007 	mov	r0, r7
            if( listLIST_IS_EMPTY( &( pxQueue->xTasksWaitingToSend ) ) == pdFALSE )
 5101004:	e3530000 	cmp	r3, #0
 5101008:	0a000004 	beq	5101020 <prvUnlockQueue+0x108>
                if( xTaskRemoveFromEventList( &( pxQueue->xTasksWaitingToSend ) ) != pdFALSE )
 510100c:	e12fff36 	blx	r6
 5101010:	e3500000 	cmp	r0, #0
 5101014:	0afffff3 	beq	5100fe8 <prvUnlockQueue+0xd0>
                    vTaskMissedYield();
 5101018:	e12fff39 	blx	r9
 510101c:	eafffff1 	b	5100fe8 <prvUnlockQueue+0xd0>
        pxQueue->cRxLock = queueUNLOCKED;
 5101020:	e3e03000 	mvn	r3, #0
 5101024:	e5c53044 	strb	r3, [r5, #68]	; 0x44
    taskEXIT_CRITICAL();
 5101028:	e12fff38 	blx	r8
}
 510102c:	e8bd87f0 	pop	{r4, r5, r6, r7, r8, r9, sl, pc}

05101030 <xQueueGenericSend>:
{
 5101030:	e92d4ff0 	push	{r4, r5, r6, r7, r8, r9, sl, fp, lr}
    configASSERT( pxQueue );
 5101034:	e2504000 	subs	r4, r0, #0
{
 5101038:	e24dd01c 	sub	sp, sp, #28
 510103c:	e58d1008 	str	r1, [sp, #8]
 5101040:	e58d3004 	str	r3, [sp, #4]
 5101044:	e58d200c 	str	r2, [sp, #12]
    configASSERT( pxQueue );
 5101048:	0a00009e 	beq	51012c8 <xQueueGenericSend+0x298>
    configASSERT( !( ( pvItemToQueue == NULL ) && ( pxQueue->uxItemSize != ( UBaseType_t ) 0U ) ) );
 510104c:	e59d3008 	ldr	r3, [sp, #8]
 5101050:	e3530000 	cmp	r3, #0
 5101054:	0a000074 	beq	510122c <xQueueGenericSend+0x1fc>
    configASSERT( !( ( xCopyPosition == queueOVERWRITE ) && ( pxQueue->uxLength != 1 ) ) );
 5101058:	e59d3004 	ldr	r3, [sp, #4]
 510105c:	e3530002 	cmp	r3, #2
 5101060:	0a000067 	beq	5101204 <xQueueGenericSend+0x1d4>
        configASSERT( !( ( xTaskGetSchedulerState() == taskSCHEDULER_SUSPENDED ) && ( xTicksToWait != 0 ) ) );
 5101064:	e3063e28 	movw	r3, #28200	; 0x6e28
 5101068:	e3403510 	movt	r3, #1296	; 0x510
 510106c:	e12fff33 	blx	r3
 5101070:	e3500000 	cmp	r0, #0
 5101074:	1a000002 	bne	5101084 <xQueueGenericSend+0x54>
 5101078:	e59d300c 	ldr	r3, [sp, #12]
 510107c:	e3530000 	cmp	r3, #0
 5101080:	1a000080 	bne	5101288 <xQueueGenericSend+0x258>
            if( ( pxQueue->uxMessagesWaiting < pxQueue->uxLength ) || ( xCopyPosition == queueOVERWRITE ) )
 5101084:	e59d3004 	ldr	r3, [sp, #4]
 5101088:	e30c5930 	movw	r5, #51504	; 0xc930
 510108c:	e30c6988 	movw	r6, #51592	; 0xc988
                    vTaskInternalSetTimeOutState( &xTimeOut );
 5101090:	e307b1ec 	movw	fp, #29164	; 0x71ec
        vTaskSuspendAll();
 5101094:	e30592a0 	movw	r9, #21152	; 0x52a0
            if( ( pxQueue->uxMessagesWaiting < pxQueue->uxLength ) || ( xCopyPosition == queueOVERWRITE ) )
 5101098:	e243a002 	sub	sl, r3, #2
        if( xTaskCheckForTimeOut( &xTimeOut, &xTicksToWait ) == pdFALSE )
 510109c:	e3058b8c 	movw	r8, #23436	; 0x5b8c
            if( ( pxQueue->uxMessagesWaiting < pxQueue->uxLength ) || ( xCopyPosition == queueOVERWRITE ) )
 51010a0:	e16faf1a 	clz	sl, sl
 51010a4:	e3a07000 	mov	r7, #0
 51010a8:	e3405510 	movt	r5, #1296	; 0x510
 51010ac:	e1a0a2aa 	lsr	sl, sl, #5
 51010b0:	e3406510 	movt	r6, #1296	; 0x510
                    vTaskInternalSetTimeOutState( &xTimeOut );
 51010b4:	e340b510 	movt	fp, #1296	; 0x510
        vTaskSuspendAll();
 51010b8:	e3409510 	movt	r9, #1296	; 0x510
        if( xTaskCheckForTimeOut( &xTimeOut, &xTicksToWait ) == pdFALSE )
 51010bc:	e3408510 	movt	r8, #1296	; 0x510
 51010c0:	ea000006 	b	51010e0 <xQueueGenericSend+0xb0>
    taskEXIT_CRITICAL();
 51010c4:	e12fff36 	blx	r6
                prvUnlockQueue( pxQueue );
 51010c8:	e1a00004 	mov	r0, r4
 51010cc:	ebffff91 	bl	5100f18 <prvUnlockQueue>
                ( void ) xTaskResumeAll();
 51010d0:	e3053efc 	movw	r3, #24316	; 0x5efc
 51010d4:	e3403510 	movt	r3, #1296	; 0x510
 51010d8:	e12fff33 	blx	r3
            if( ( pxQueue->uxMessagesWaiting < pxQueue->uxLength ) || ( xCopyPosition == queueOVERWRITE ) )
 51010dc:	e3a07001 	mov	r7, #1
        taskENTER_CRITICAL();
 51010e0:	e12fff35 	blx	r5
            if( ( pxQueue->uxMessagesWaiting < pxQueue->uxLength ) || ( xCopyPosition == queueOVERWRITE ) )
 51010e4:	e5941038 	ldr	r1, [r4, #56]	; 0x38
 51010e8:	e594203c 	ldr	r2, [r4, #60]	; 0x3c
 51010ec:	e1510002 	cmp	r1, r2
 51010f0:	21a0300a 	movcs	r3, sl
 51010f4:	338a3001 	orrcc	r3, sl, #1
 51010f8:	e3530000 	cmp	r3, #0
 51010fc:	1a00002f 	bne	51011c0 <xQueueGenericSend+0x190>
                if( xTicksToWait == ( TickType_t ) 0 )
 5101100:	e59d000c 	ldr	r0, [sp, #12]
 5101104:	e3500000 	cmp	r0, #0
 5101108:	0a000051 	beq	5101254 <xQueueGenericSend+0x224>
                else if( xEntryTimeSet == pdFALSE )
 510110c:	e3570000 	cmp	r7, #0
                    vTaskInternalSetTimeOutState( &xTimeOut );
 5101110:	e28d7010 	add	r7, sp, #16
                else if( xEntryTimeSet == pdFALSE )
 5101114:	0a000026 	beq	51011b4 <xQueueGenericSend+0x184>
        taskEXIT_CRITICAL();
 5101118:	e12fff36 	blx	r6
        vTaskSuspendAll();
 510111c:	e12fff39 	blx	r9
        prvLockQueue( pxQueue );
 5101120:	e12fff35 	blx	r5
 5101124:	e5d43044 	ldrb	r3, [r4, #68]	; 0x44
 5101128:	e35300ff 	cmp	r3, #255	; 0xff
 510112c:	03a03000 	moveq	r3, #0
 5101130:	05c43044 	strbeq	r3, [r4, #68]	; 0x44
 5101134:	e5d43045 	ldrb	r3, [r4, #69]	; 0x45
 5101138:	e35300ff 	cmp	r3, #255	; 0xff
 510113c:	03a03000 	moveq	r3, #0
 5101140:	05c43045 	strbeq	r3, [r4, #69]	; 0x45
 5101144:	e12fff36 	blx	r6
        if( xTaskCheckForTimeOut( &xTimeOut, &xTicksToWait ) == pdFALSE )
 5101148:	e1a00007 	mov	r0, r7
 510114c:	e28d100c 	add	r1, sp, #12
 5101150:	e12fff38 	blx	r8
 5101154:	e3500000 	cmp	r0, #0
 5101158:	1a000042 	bne	5101268 <xQueueGenericSend+0x238>
    taskENTER_CRITICAL();
 510115c:	e12fff35 	blx	r5
        if( pxQueue->uxMessagesWaiting == pxQueue->uxLength )
 5101160:	e5942038 	ldr	r2, [r4, #56]	; 0x38
 5101164:	e594303c 	ldr	r3, [r4, #60]	; 0x3c
 5101168:	e1520003 	cmp	r2, r3
 510116c:	1affffd4 	bne	51010c4 <xQueueGenericSend+0x94>
    taskEXIT_CRITICAL();
 5101170:	e12fff36 	blx	r6
                vTaskPlaceOnEventList( &( pxQueue->xTasksWaitingToSend ), xTicksToWait );
 5101174:	e3063718 	movw	r3, #26392	; 0x6718
 5101178:	e59d100c 	ldr	r1, [sp, #12]
 510117c:	e3403510 	movt	r3, #1296	; 0x510
 5101180:	e2840010 	add	r0, r4, #16
 5101184:	e12fff33 	blx	r3
                prvUnlockQueue( pxQueue );
 5101188:	e1a00004 	mov	r0, r4
 510118c:	ebffff61 	bl	5100f18 <prvUnlockQueue>
                if( xTaskResumeAll() == pdFALSE )
 5101190:	e3053efc 	movw	r3, #24316	; 0x5efc
 5101194:	e3403510 	movt	r3, #1296	; 0x510
 5101198:	e12fff33 	blx	r3
 510119c:	e3500000 	cmp	r0, #0
 51011a0:	1affffcd 	bne	51010dc <xQueueGenericSend+0xac>
                    taskYIELD_WITHIN_API();
 51011a4:	e3003000 	movw	r3, #0
 51011a8:	e3403511 	movt	r3, #1297	; 0x511
 51011ac:	e12fff33 	blx	r3
 51011b0:	eaffffc9 	b	51010dc <xQueueGenericSend+0xac>
                    vTaskInternalSetTimeOutState( &xTimeOut );
 51011b4:	e1a00007 	mov	r0, r7
 51011b8:	e12fff3b 	blx	fp
                    xEntryTimeSet = pdTRUE;
 51011bc:	eaffffd5 	b	5101118 <xQueueGenericSend+0xe8>
                    xYieldRequired = prvCopyDataToQueue( pxQueue, pvItemToQueue, xCopyPosition );
 51011c0:	e59d2004 	ldr	r2, [sp, #4]
 51011c4:	e1a00004 	mov	r0, r4
 51011c8:	e59d1008 	ldr	r1, [sp, #8]
                    const UBaseType_t uxPreviousMessagesWaiting = pxQueue->uxMessagesWaiting;
 51011cc:	e5945038 	ldr	r5, [r4, #56]	; 0x38
                    xYieldRequired = prvCopyDataToQueue( pxQueue, pvItemToQueue, xCopyPosition );
 51011d0:	ebfffece 	bl	5100d10 <prvCopyDataToQueue>
                    if( pxQueue->pxQueueSetContainer != NULL )
 51011d4:	e5943048 	ldr	r3, [r4, #72]	; 0x48
 51011d8:	e3530000 	cmp	r3, #0
 51011dc:	0a000030 	beq	51012a4 <xQueueGenericSend+0x274>
                        if( ( xCopyPosition == queueOVERWRITE ) && ( uxPreviousMessagesWaiting != ( UBaseType_t ) 0 ) )
 51011e0:	e3550000 	cmp	r5, #0
 51011e4:	03a0a000 	moveq	sl, #0
 51011e8:	120aa001 	andne	sl, sl, #1
 51011ec:	e35a0000 	cmp	sl, #0
 51011f0:	0a00003b 	beq	51012e4 <xQueueGenericSend+0x2b4>
                taskEXIT_CRITICAL();
 51011f4:	e12fff36 	blx	r6
                return pdPASS;
 51011f8:	e3a00001 	mov	r0, #1
}
 51011fc:	e28dd01c 	add	sp, sp, #28
 5101200:	e8bd8ff0 	pop	{r4, r5, r6, r7, r8, r9, sl, fp, pc}
    configASSERT( !( ( xCopyPosition == queueOVERWRITE ) && ( pxQueue->uxLength != 1 ) ) );
 5101204:	e594303c 	ldr	r3, [r4, #60]	; 0x3c
 5101208:	e3530001 	cmp	r3, #1
 510120c:	0affff94 	beq	5101064 <xQueueGenericSend+0x34>
 5101210:	e30d0a74 	movw	r0, #55924	; 0xda74
 5101214:	e3003900 	movw	r3, #2304	; 0x900
 5101218:	e3a01fee 	mov	r1, #952	; 0x3b8
 510121c:	e3403511 	movt	r3, #1297	; 0x511
 5101220:	e3400512 	movt	r0, #1298	; 0x512
 5101224:	e12fff33 	blx	r3
 5101228:	eaffff8d 	b	5101064 <xQueueGenericSend+0x34>
    configASSERT( !( ( pvItemToQueue == NULL ) && ( pxQueue->uxItemSize != ( UBaseType_t ) 0U ) ) );
 510122c:	e5943040 	ldr	r3, [r4, #64]	; 0x40
 5101230:	e3530000 	cmp	r3, #0
 5101234:	0affff87 	beq	5101058 <xQueueGenericSend+0x28>
 5101238:	e30d0a74 	movw	r0, #55924	; 0xda74
 510123c:	e3003900 	movw	r3, #2304	; 0x900
 5101240:	e30013b7 	movw	r1, #951	; 0x3b7
 5101244:	e3403511 	movt	r3, #1297	; 0x511
 5101248:	e3400512 	movt	r0, #1298	; 0x512
 510124c:	e12fff33 	blx	r3
 5101250:	eaffff80 	b	5101058 <xQueueGenericSend+0x28>
 5101254:	e58d0004 	str	r0, [sp, #4]
                    taskEXIT_CRITICAL();
 5101258:	e12fff36 	blx	r6
                    return errQUEUE_FULL;
 510125c:	e59d0004 	ldr	r0, [sp, #4]
}
 5101260:	e28dd01c 	add	sp, sp, #28
 5101264:	e8bd8ff0 	pop	{r4, r5, r6, r7, r8, r9, sl, fp, pc}
            prvUnlockQueue( pxQueue );
 5101268:	e1a00004 	mov	r0, r4
 510126c:	ebffff29 	bl	5100f18 <prvUnlockQueue>
            ( void ) xTaskResumeAll();
 5101270:	e3053efc 	movw	r3, #24316	; 0x5efc
 5101274:	e3403510 	movt	r3, #1296	; 0x510
 5101278:	e12fff33 	blx	r3
            return errQUEUE_FULL;
 510127c:	e3a00000 	mov	r0, #0
}
 5101280:	e28dd01c 	add	sp, sp, #28
 5101284:	e8bd8ff0 	pop	{r4, r5, r6, r7, r8, r9, sl, fp, pc}
        configASSERT( !( ( xTaskGetSchedulerState() == taskSCHEDULER_SUSPENDED ) && ( xTicksToWait != 0 ) ) );
 5101288:	e30d0a74 	movw	r0, #55924	; 0xda74
 510128c:	e3003900 	movw	r3, #2304	; 0x900
 5101290:	e30013bb 	movw	r1, #955	; 0x3bb
 5101294:	e3403511 	movt	r3, #1297	; 0x511
 5101298:	e3400512 	movt	r0, #1298	; 0x512
 510129c:	e12fff33 	blx	r3
 51012a0:	eaffff77 	b	5101084 <xQueueGenericSend+0x54>
                        if( listLIST_IS_EMPTY( &( pxQueue->xTasksWaitingToReceive ) ) == pdFALSE )
 51012a4:	e5943024 	ldr	r3, [r4, #36]	; 0x24
 51012a8:	e3530000 	cmp	r3, #0
 51012ac:	1a00000f 	bne	51012f0 <xQueueGenericSend+0x2c0>
                        else if( prvNotifyQueueSetContainer( pxQueue ) != pdFALSE )
 51012b0:	e3500000 	cmp	r0, #0
 51012b4:	0affffce 	beq	51011f4 <xQueueGenericSend+0x1c4>
                            queueYIELD_IF_USING_PREEMPTION();
 51012b8:	e3003000 	movw	r3, #0
 51012bc:	e3403511 	movt	r3, #1297	; 0x511
 51012c0:	e12fff33 	blx	r3
 51012c4:	eaffffca 	b	51011f4 <xQueueGenericSend+0x1c4>
    configASSERT( pxQueue );
 51012c8:	e30d0a74 	movw	r0, #55924	; 0xda74
 51012cc:	e3003900 	movw	r3, #2304	; 0x900
 51012d0:	e30013b6 	movw	r1, #950	; 0x3b6
 51012d4:	e3403511 	movt	r3, #1297	; 0x511
 51012d8:	e3400512 	movt	r0, #1298	; 0x512
 51012dc:	e12fff33 	blx	r3
 51012e0:	eaffff59 	b	510104c <xQueueGenericSend+0x1c>
                        else if( prvNotifyQueueSetContainer( pxQueue ) != pdFALSE )
 51012e4:	e1a00004 	mov	r0, r4
 51012e8:	ebfffec2 	bl	5100df8 <prvNotifyQueueSetContainer>
 51012ec:	eaffffef 	b	51012b0 <xQueueGenericSend+0x280>
                            if( xTaskRemoveFromEventList( &( pxQueue->xTasksWaitingToReceive ) ) != pdFALSE )
 51012f0:	e30638d0 	movw	r3, #26832	; 0x68d0
 51012f4:	e2840024 	add	r0, r4, #36	; 0x24
 51012f8:	e3403510 	movt	r3, #1296	; 0x510
 51012fc:	e12fff33 	blx	r3
 5101300:	e3500000 	cmp	r0, #0
 5101304:	0affffba 	beq	51011f4 <xQueueGenericSend+0x1c4>
 5101308:	eaffffea 	b	51012b8 <xQueueGenericSend+0x288>

0510130c <xQueuePeek>:
{
 510130c:	e92d4ff0 	push	{r4, r5, r6, r7, r8, r9, sl, fp, lr}
    configASSERT( ( pxQueue ) );
 5101310:	e2504000 	subs	r4, r0, #0
{
 5101314:	e24dd01c 	sub	sp, sp, #28
 5101318:	e58d1004 	str	r1, [sp, #4]
 510131c:	e58d200c 	str	r2, [sp, #12]
    configASSERT( ( pxQueue ) );
 5101320:	0a00006e 	beq	51014e0 <xQueuePeek+0x1d4>
    configASSERT( !( ( ( pvBuffer ) == NULL ) && ( ( pxQueue )->uxItemSize != ( UBaseType_t ) 0U ) ) );
 5101324:	e59d3004 	ldr	r3, [sp, #4]
 5101328:	e3530000 	cmp	r3, #0
 510132c:	0a00005a 	beq	510149c <xQueuePeek+0x190>
        configASSERT( !( ( xTaskGetSchedulerState() == taskSCHEDULER_SUSPENDED ) && ( xTicksToWait != 0 ) ) );
 5101330:	e3063e28 	movw	r3, #28200	; 0x6e28
 5101334:	e3403510 	movt	r3, #1296	; 0x510
 5101338:	e12fff33 	blx	r3
 510133c:	e3500000 	cmp	r0, #0
 5101340:	1a000002 	bne	5101350 <xQueuePeek+0x44>
 5101344:	e59d300c 	ldr	r3, [sp, #12]
 5101348:	e3530000 	cmp	r3, #0
 510134c:	1a00005c 	bne	51014c4 <xQueuePeek+0x1b8>
        taskENTER_CRITICAL();
 5101350:	e30c6930 	movw	r6, #51504	; 0xc930
 5101354:	e3406510 	movt	r6, #1296	; 0x510
 5101358:	e12fff36 	blx	r6
            const UBaseType_t uxMessagesWaiting = pxQueue->uxMessagesWaiting;
 510135c:	e594a038 	ldr	sl, [r4, #56]	; 0x38
            if( uxMessagesWaiting > ( UBaseType_t ) 0 )
 5101360:	e35a0000 	cmp	sl, #0
 5101364:	130c5988 	movwne	r5, #51592	; 0xc988
 5101368:	13405510 	movtne	r5, #1296	; 0x510
 510136c:	1a000062 	bne	51014fc <xQueuePeek+0x1f0>
                if( xTicksToWait == ( TickType_t ) 0 )
 5101370:	e59d300c 	ldr	r3, [sp, #12]
 5101374:	e3530000 	cmp	r3, #0
 5101378:	0a00007f 	beq	510157c <xQueuePeek+0x270>
                    vTaskInternalSetTimeOutState( &xTimeOut );
 510137c:	e30731ec 	movw	r3, #29164	; 0x71ec
 5101380:	e28d0010 	add	r0, sp, #16
 5101384:	e30c5988 	movw	r5, #51592	; 0xc988
 5101388:	e3403510 	movt	r3, #1296	; 0x510
 510138c:	e12fff33 	blx	r3
                    xEntryTimeSet = pdTRUE;
 5101390:	e30592a0 	movw	r9, #21152	; 0x52a0
 5101394:	e3058b8c 	movw	r8, #23436	; 0x5b8c
 5101398:	e3057efc 	movw	r7, #24316	; 0x5efc
                vTaskPlaceOnEventList( &( pxQueue->xTasksWaitingToReceive ), xTicksToWait );
 510139c:	e306b718 	movw	fp, #26392	; 0x6718
                    taskYIELD_WITHIN_API();
 51013a0:	e3003000 	movw	r3, #0
 51013a4:	e3403511 	movt	r3, #1297	; 0x511
 51013a8:	e3405510 	movt	r5, #1296	; 0x510
 51013ac:	e3409510 	movt	r9, #1296	; 0x510
 51013b0:	e3408510 	movt	r8, #1296	; 0x510
 51013b4:	e3407510 	movt	r7, #1296	; 0x510
 51013b8:	e58d3008 	str	r3, [sp, #8]
                vTaskPlaceOnEventList( &( pxQueue->xTasksWaitingToReceive ), xTicksToWait );
 51013bc:	e340b510 	movt	fp, #1296	; 0x510
        taskEXIT_CRITICAL();
 51013c0:	e12fff35 	blx	r5
        vTaskSuspendAll();
 51013c4:	e12fff39 	blx	r9
        prvLockQueue( pxQueue );
 51013c8:	e12fff36 	blx	r6
 51013cc:	e5d43044 	ldrb	r3, [r4, #68]	; 0x44
 51013d0:	e35300ff 	cmp	r3, #255	; 0xff
 51013d4:	05c4a044 	strbeq	sl, [r4, #68]	; 0x44
 51013d8:	e5d43045 	ldrb	r3, [r4, #69]	; 0x45
 51013dc:	e35300ff 	cmp	r3, #255	; 0xff
 51013e0:	05c4a045 	strbeq	sl, [r4, #69]	; 0x45
 51013e4:	e12fff35 	blx	r5
        if( xTaskCheckForTimeOut( &xTimeOut, &xTicksToWait ) == pdFALSE )
 51013e8:	e28d100c 	add	r1, sp, #12
 51013ec:	e28d0010 	add	r0, sp, #16
 51013f0:	e12fff38 	blx	r8
 51013f4:	e3500000 	cmp	r0, #0
 51013f8:	1a000012 	bne	5101448 <xQueuePeek+0x13c>
    taskENTER_CRITICAL();
 51013fc:	e12fff36 	blx	r6
        if( pxQueue->uxMessagesWaiting == ( UBaseType_t ) 0 )
 5101400:	e5943038 	ldr	r3, [r4, #56]	; 0x38
 5101404:	e3530000 	cmp	r3, #0
 5101408:	0a000017 	beq	510146c <xQueuePeek+0x160>
    taskEXIT_CRITICAL();
 510140c:	e12fff35 	blx	r5
                prvUnlockQueue( pxQueue );
 5101410:	e1a00004 	mov	r0, r4
 5101414:	ebfffebf 	bl	5100f18 <prvUnlockQueue>
                ( void ) xTaskResumeAll();
 5101418:	e12fff37 	blx	r7
        taskENTER_CRITICAL();
 510141c:	e12fff36 	blx	r6
            const UBaseType_t uxMessagesWaiting = pxQueue->uxMessagesWaiting;
 5101420:	e5943038 	ldr	r3, [r4, #56]	; 0x38
            if( uxMessagesWaiting > ( UBaseType_t ) 0 )
 5101424:	e3530000 	cmp	r3, #0
 5101428:	1a000033 	bne	51014fc <xQueuePeek+0x1f0>
                if( xTicksToWait == ( TickType_t ) 0 )
 510142c:	e59d300c 	ldr	r3, [sp, #12]
 5101430:	e3530000 	cmp	r3, #0
 5101434:	1affffe1 	bne	51013c0 <xQueuePeek+0xb4>
                    taskEXIT_CRITICAL();
 5101438:	e12fff35 	blx	r5
                    return errQUEUE_EMPTY;
 510143c:	e3a00000 	mov	r0, #0
}
 5101440:	e28dd01c 	add	sp, sp, #28
 5101444:	e8bd8ff0 	pop	{r4, r5, r6, r7, r8, r9, sl, fp, pc}
            prvUnlockQueue( pxQueue );
 5101448:	e1a00004 	mov	r0, r4
 510144c:	ebfffeb1 	bl	5100f18 <prvUnlockQueue>
            ( void ) xTaskResumeAll();
 5101450:	e12fff37 	blx	r7
    taskENTER_CRITICAL();
 5101454:	e12fff36 	blx	r6
        if( pxQueue->uxMessagesWaiting == ( UBaseType_t ) 0 )
 5101458:	e5943038 	ldr	r3, [r4, #56]	; 0x38
 510145c:	e3530000 	cmp	r3, #0
 5101460:	0afffff4 	beq	5101438 <xQueuePeek+0x12c>
    taskEXIT_CRITICAL();
 5101464:	e12fff35 	blx	r5
 5101468:	eaffffeb 	b	510141c <xQueuePeek+0x110>
 510146c:	e12fff35 	blx	r5
                vTaskPlaceOnEventList( &( pxQueue->xTasksWaitingToReceive ), xTicksToWait );
 5101470:	e59d100c 	ldr	r1, [sp, #12]
 5101474:	e2840024 	add	r0, r4, #36	; 0x24
 5101478:	e12fff3b 	blx	fp
                prvUnlockQueue( pxQueue );
 510147c:	e1a00004 	mov	r0, r4
 5101480:	ebfffea4 	bl	5100f18 <prvUnlockQueue>
                if( xTaskResumeAll() == pdFALSE )
 5101484:	e12fff37 	blx	r7
 5101488:	e3500000 	cmp	r0, #0
 510148c:	1affffe2 	bne	510141c <xQueuePeek+0x110>
                    taskYIELD_WITHIN_API();
 5101490:	e59d3008 	ldr	r3, [sp, #8]
 5101494:	e12fff33 	blx	r3
        taskENTER_CRITICAL();
 5101498:	eaffffdf 	b	510141c <xQueuePeek+0x110>
    configASSERT( !( ( ( pvBuffer ) == NULL ) && ( ( pxQueue )->uxItemSize != ( UBaseType_t ) 0U ) ) );
 510149c:	e5943040 	ldr	r3, [r4, #64]	; 0x40
 51014a0:	e3530000 	cmp	r3, #0
 51014a4:	0affffa1 	beq	5101330 <xQueuePeek+0x24>
 51014a8:	e30d0a74 	movw	r0, #55924	; 0xda74
 51014ac:	e3003900 	movw	r3, #2304	; 0x900
 51014b0:	e3001765 	movw	r1, #1893	; 0x765
 51014b4:	e3403511 	movt	r3, #1297	; 0x511
 51014b8:	e3400512 	movt	r0, #1298	; 0x512
 51014bc:	e12fff33 	blx	r3
 51014c0:	eaffff9a 	b	5101330 <xQueuePeek+0x24>
        configASSERT( !( ( xTaskGetSchedulerState() == taskSCHEDULER_SUSPENDED ) && ( xTicksToWait != 0 ) ) );
 51014c4:	e30d0a74 	movw	r0, #55924	; 0xda74
 51014c8:	e3003900 	movw	r3, #2304	; 0x900
 51014cc:	e300176a 	movw	r1, #1898	; 0x76a
 51014d0:	e3403511 	movt	r3, #1297	; 0x511
 51014d4:	e3400512 	movt	r0, #1298	; 0x512
 51014d8:	e12fff33 	blx	r3
 51014dc:	eaffff9b 	b	5101350 <xQueuePeek+0x44>
    configASSERT( ( pxQueue ) );
 51014e0:	e30d0a74 	movw	r0, #55924	; 0xda74
 51014e4:	e3003900 	movw	r3, #2304	; 0x900
 51014e8:	e3001761 	movw	r1, #1889	; 0x761
 51014ec:	e3403511 	movt	r3, #1297	; 0x511
 51014f0:	e3400512 	movt	r0, #1298	; 0x512
 51014f4:	e12fff33 	blx	r3
 51014f8:	eaffff89 	b	5101324 <xQueuePeek+0x18>
    if( pxQueue->uxItemSize != ( UBaseType_t ) 0 )
 51014fc:	e5942040 	ldr	r2, [r4, #64]	; 0x40
                pcOriginalReadPosition = pxQueue->u.xQueue.pcReadFrom;
 5101500:	e594600c 	ldr	r6, [r4, #12]
    if( pxQueue->uxItemSize != ( UBaseType_t ) 0 )
 5101504:	e3520000 	cmp	r2, #0
 5101508:	0a000009 	beq	5101534 <xQueuePeek+0x228>
        if( pxQueue->u.xQueue.pcReadFrom >= pxQueue->u.xQueue.pcTail )
 510150c:	e5943008 	ldr	r3, [r4, #8]
        pxQueue->u.xQueue.pcReadFrom += pxQueue->uxItemSize;
 5101510:	e0861002 	add	r1, r6, r2
        ( void ) memcpy( ( void * ) pvBuffer, ( void * ) pxQueue->u.xQueue.pcReadFrom, ( size_t ) pxQueue->uxItemSize );
 5101514:	e59d0004 	ldr	r0, [sp, #4]
        pxQueue->u.xQueue.pcReadFrom += pxQueue->uxItemSize;
 5101518:	e584100c 	str	r1, [r4, #12]
        if( pxQueue->u.xQueue.pcReadFrom >= pxQueue->u.xQueue.pcTail )
 510151c:	e1510003 	cmp	r1, r3
        ( void ) memcpy( ( void * ) pvBuffer, ( void * ) pxQueue->u.xQueue.pcReadFrom, ( size_t ) pxQueue->uxItemSize );
 5101520:	e3093ca1 	movw	r3, #40097	; 0x9ca1
 5101524:	e3403511 	movt	r3, #1297	; 0x511
            pxQueue->u.xQueue.pcReadFrom = pxQueue->pcHead;
 5101528:	25941000 	ldrcs	r1, [r4]
 510152c:	2584100c 	strcs	r1, [r4, #12]
        ( void ) memcpy( ( void * ) pvBuffer, ( void * ) pxQueue->u.xQueue.pcReadFrom, ( size_t ) pxQueue->uxItemSize );
 5101530:	e12fff33 	blx	r3
                if( listLIST_IS_EMPTY( &( pxQueue->xTasksWaitingToReceive ) ) == pdFALSE )
 5101534:	e5943024 	ldr	r3, [r4, #36]	; 0x24
                pxQueue->u.xQueue.pcReadFrom = pcOriginalReadPosition;
 5101538:	e584600c 	str	r6, [r4, #12]
                if( listLIST_IS_EMPTY( &( pxQueue->xTasksWaitingToReceive ) ) == pdFALSE )
 510153c:	e3530000 	cmp	r3, #0
 5101540:	1a000003 	bne	5101554 <xQueuePeek+0x248>
                taskEXIT_CRITICAL();
 5101544:	e12fff35 	blx	r5
                return pdPASS;
 5101548:	e3a00001 	mov	r0, #1
}
 510154c:	e28dd01c 	add	sp, sp, #28
 5101550:	e8bd8ff0 	pop	{r4, r5, r6, r7, r8, r9, sl, fp, pc}
                    if( xTaskRemoveFromEventList( &( pxQueue->xTasksWaitingToReceive ) ) != pdFALSE )
 5101554:	e30638d0 	movw	r3, #26832	; 0x68d0
 5101558:	e2840024 	add	r0, r4, #36	; 0x24
 510155c:	e3403510 	movt	r3, #1296	; 0x510
 5101560:	e12fff33 	blx	r3
 5101564:	e3500000 	cmp	r0, #0
 5101568:	0afffff5 	beq	5101544 <xQueuePeek+0x238>
                        queueYIELD_IF_USING_PREEMPTION();
 510156c:	e3003000 	movw	r3, #0
 5101570:	e3403511 	movt	r3, #1297	; 0x511
 5101574:	e12fff33 	blx	r3
 5101578:	eafffff1 	b	5101544 <xQueuePeek+0x238>
 510157c:	e30c5988 	movw	r5, #51592	; 0xc988
 5101580:	e3405510 	movt	r5, #1296	; 0x510
 5101584:	eaffffab 	b	5101438 <xQueuePeek+0x12c>

05101588 <xQueuePeekFromISR>:
{
 5101588:	e92d4070 	push	{r4, r5, r6, lr}
 510158c:	e1a05001 	mov	r5, r1
    configASSERT( pxQueue );
 5101590:	e2504000 	subs	r4, r0, #0
 5101594:	0a000023 	beq	5101628 <xQueuePeekFromISR+0xa0>
    configASSERT( !( ( pvBuffer == NULL ) && ( pxQueue->uxItemSize != ( UBaseType_t ) 0U ) ) );
 5101598:	e3550000 	cmp	r5, #0
 510159c:	0a000007 	beq	51015c0 <xQueuePeekFromISR+0x38>
    configASSERT( pxQueue->uxItemSize != 0 ); /* Can't peek a semaphore. */
 51015a0:	e5942040 	ldr	r2, [r4, #64]	; 0x40
 51015a4:	e3520000 	cmp	r2, #0
 51015a8:	0a000007 	beq	51015cc <xQueuePeekFromISR+0x44>
        if( pxQueue->uxMessagesWaiting > ( UBaseType_t ) 0 )
 51015ac:	e5943038 	ldr	r3, [r4, #56]	; 0x38
 51015b0:	e3530000 	cmp	r3, #0
 51015b4:	1a000022 	bne	5101644 <xQueuePeekFromISR+0xbc>
            xReturn = pdFAIL;
 51015b8:	e3a00000 	mov	r0, #0
 51015bc:	e8bd8070 	pop	{r4, r5, r6, pc}
    configASSERT( !( ( pvBuffer == NULL ) && ( pxQueue->uxItemSize != ( UBaseType_t ) 0U ) ) );
 51015c0:	e5943040 	ldr	r3, [r4, #64]	; 0x40
 51015c4:	e3530000 	cmp	r3, #0
 51015c8:	1a00000f 	bne	510160c <xQueuePeekFromISR+0x84>
    configASSERT( pxQueue->uxItemSize != 0 ); /* Can't peek a semaphore. */
 51015cc:	e30d0a74 	movw	r0, #55924	; 0xda74
 51015d0:	e3003900 	movw	r3, #2304	; 0x900
 51015d4:	e3001863 	movw	r1, #2147	; 0x863
 51015d8:	e3403511 	movt	r3, #1297	; 0x511
 51015dc:	e3400512 	movt	r0, #1298	; 0x512
 51015e0:	e12fff33 	blx	r3
        if( pxQueue->uxMessagesWaiting > ( UBaseType_t ) 0 )
 51015e4:	e5943038 	ldr	r3, [r4, #56]	; 0x38
 51015e8:	e3530000 	cmp	r3, #0
 51015ec:	0afffff1 	beq	51015b8 <xQueuePeekFromISR+0x30>
    if( pxQueue->uxItemSize != ( UBaseType_t ) 0 )
 51015f0:	e5942040 	ldr	r2, [r4, #64]	; 0x40
            pcOriginalReadPosition = pxQueue->u.xQueue.pcReadFrom;
 51015f4:	e594600c 	ldr	r6, [r4, #12]
    if( pxQueue->uxItemSize != ( UBaseType_t ) 0 )
 51015f8:	e3520000 	cmp	r2, #0
 51015fc:	1a000011 	bne	5101648 <xQueuePeekFromISR+0xc0>
            pxQueue->u.xQueue.pcReadFrom = pcOriginalReadPosition;
 5101600:	e584600c 	str	r6, [r4, #12]
            xReturn = pdPASS;
 5101604:	e3a00001 	mov	r0, #1
}
 5101608:	e8bd8070 	pop	{r4, r5, r6, pc}
    configASSERT( !( ( pvBuffer == NULL ) && ( pxQueue->uxItemSize != ( UBaseType_t ) 0U ) ) );
 510160c:	e30d0a74 	movw	r0, #55924	; 0xda74
 5101610:	e3003900 	movw	r3, #2304	; 0x900
 5101614:	e3001862 	movw	r1, #2146	; 0x862
 5101618:	e3403511 	movt	r3, #1297	; 0x511
 510161c:	e3400512 	movt	r0, #1298	; 0x512
 5101620:	e12fff33 	blx	r3
 5101624:	eaffffdd 	b	51015a0 <xQueuePeekFromISR+0x18>
    configASSERT( pxQueue );
 5101628:	e30d0a74 	movw	r0, #55924	; 0xda74
 510162c:	e3003900 	movw	r3, #2304	; 0x900
 5101630:	e3001861 	movw	r1, #2145	; 0x861
 5101634:	e3403511 	movt	r3, #1297	; 0x511
 5101638:	e3400512 	movt	r0, #1298	; 0x512
 510163c:	e12fff33 	blx	r3
 5101640:	eaffffd4 	b	5101598 <xQueuePeekFromISR+0x10>
            pcOriginalReadPosition = pxQueue->u.xQueue.pcReadFrom;
 5101644:	e594600c 	ldr	r6, [r4, #12]
        if( pxQueue->u.xQueue.pcReadFrom >= pxQueue->u.xQueue.pcTail )
 5101648:	e5943008 	ldr	r3, [r4, #8]
        pxQueue->u.xQueue.pcReadFrom += pxQueue->uxItemSize;
 510164c:	e0861002 	add	r1, r6, r2
        ( void ) memcpy( ( void * ) pvBuffer, ( void * ) pxQueue->u.xQueue.pcReadFrom, ( size_t ) pxQueue->uxItemSize );
 5101650:	e1a00005 	mov	r0, r5
        pxQueue->u.xQueue.pcReadFrom += pxQueue->uxItemSize;
 5101654:	e584100c 	str	r1, [r4, #12]
        if( pxQueue->u.xQueue.pcReadFrom >= pxQueue->u.xQueue.pcTail )
 5101658:	e1510003 	cmp	r1, r3
        ( void ) memcpy( ( void * ) pvBuffer, ( void * ) pxQueue->u.xQueue.pcReadFrom, ( size_t ) pxQueue->uxItemSize );
 510165c:	e3093ca1 	movw	r3, #40097	; 0x9ca1
 5101660:	e3403511 	movt	r3, #1297	; 0x511
            pxQueue->u.xQueue.pcReadFrom = pxQueue->pcHead;
 5101664:	25941000 	ldrcs	r1, [r4]
 5101668:	2584100c 	strcs	r1, [r4, #12]
        ( void ) memcpy( ( void * ) pvBuffer, ( void * ) pxQueue->u.xQueue.pcReadFrom, ( size_t ) pxQueue->uxItemSize );
 510166c:	e12fff33 	blx	r3
 5101670:	eaffffe2 	b	5101600 <xQueuePeekFromISR+0x78>

05101674 <xQueueReceive>:
{
 5101674:	e92d4ff0 	push	{r4, r5, r6, r7, r8, r9, sl, fp, lr}
    configASSERT( ( pxQueue ) );
 5101678:	e2504000 	subs	r4, r0, #0
{
 510167c:	e24dd01c 	sub	sp, sp, #28
 5101680:	e58d1008 	str	r1, [sp, #8]
 5101684:	e58d200c 	str	r2, [sp, #12]
    configASSERT( ( pxQueue ) );
 5101688:	0a00006f 	beq	510184c <xQueueReceive+0x1d8>
    configASSERT( !( ( ( pvBuffer ) == NULL ) && ( ( pxQueue )->uxItemSize != ( UBaseType_t ) 0U ) ) );
 510168c:	e59d3008 	ldr	r3, [sp, #8]
 5101690:	e3530000 	cmp	r3, #0
 5101694:	0a00005b 	beq	5101808 <xQueueReceive+0x194>
        configASSERT( !( ( xTaskGetSchedulerState() == taskSCHEDULER_SUSPENDED ) && ( xTicksToWait != 0 ) ) );
 5101698:	e3063e28 	movw	r3, #28200	; 0x6e28
 510169c:	e3403510 	movt	r3, #1296	; 0x510
 51016a0:	e12fff33 	blx	r3
 51016a4:	e3500000 	cmp	r0, #0
 51016a8:	1a000002 	bne	51016b8 <xQueueReceive+0x44>
 51016ac:	e59d300c 	ldr	r3, [sp, #12]
 51016b0:	e3530000 	cmp	r3, #0
 51016b4:	1a00005d 	bne	5101830 <xQueueReceive+0x1bc>
        taskENTER_CRITICAL();
 51016b8:	e30c6930 	movw	r6, #51504	; 0xc930
 51016bc:	e3406510 	movt	r6, #1296	; 0x510
 51016c0:	e12fff36 	blx	r6
            const UBaseType_t uxMessagesWaiting = pxQueue->uxMessagesWaiting;
 51016c4:	e5943038 	ldr	r3, [r4, #56]	; 0x38
            if( uxMessagesWaiting > ( UBaseType_t ) 0 )
 51016c8:	e3530000 	cmp	r3, #0
 51016cc:	130c5988 	movwne	r5, #51592	; 0xc988
 51016d0:	13405510 	movtne	r5, #1296	; 0x510
 51016d4:	1a000063 	bne	5101868 <xQueueReceive+0x1f4>
                if( xTicksToWait == ( TickType_t ) 0 )
 51016d8:	e59d200c 	ldr	r2, [sp, #12]
 51016dc:	e3520000 	cmp	r2, #0
 51016e0:	0a000083 	beq	51018f4 <xQueueReceive+0x280>
        prvLockQueue( pxQueue );
 51016e4:	e58d3004 	str	r3, [sp, #4]
                    vTaskInternalSetTimeOutState( &xTimeOut );
 51016e8:	e30731ec 	movw	r3, #29164	; 0x71ec
 51016ec:	e28d0010 	add	r0, sp, #16
 51016f0:	e30c5988 	movw	r5, #51592	; 0xc988
 51016f4:	e3403510 	movt	r3, #1296	; 0x510
 51016f8:	e12fff33 	blx	r3
                    xEntryTimeSet = pdTRUE;
 51016fc:	e30592a0 	movw	r9, #21152	; 0x52a0
 5101700:	e3058b8c 	movw	r8, #23436	; 0x5b8c
 5101704:	e3057efc 	movw	r7, #24316	; 0x5efc
                vTaskPlaceOnEventList( &( pxQueue->xTasksWaitingToReceive ), xTicksToWait );
 5101708:	e306a718 	movw	sl, #26392	; 0x6718
                    taskYIELD_WITHIN_API();
 510170c:	e300b000 	movw	fp, #0
 5101710:	e3405510 	movt	r5, #1296	; 0x510
 5101714:	e3409510 	movt	r9, #1296	; 0x510
 5101718:	e3408510 	movt	r8, #1296	; 0x510
 510171c:	e3407510 	movt	r7, #1296	; 0x510
                vTaskPlaceOnEventList( &( pxQueue->xTasksWaitingToReceive ), xTicksToWait );
 5101720:	e340a510 	movt	sl, #1296	; 0x510
                    taskYIELD_WITHIN_API();
 5101724:	e340b511 	movt	fp, #1297	; 0x511
        taskEXIT_CRITICAL();
 5101728:	e12fff35 	blx	r5
        vTaskSuspendAll();
 510172c:	e12fff39 	blx	r9
        prvLockQueue( pxQueue );
 5101730:	e12fff36 	blx	r6
 5101734:	e5d43044 	ldrb	r3, [r4, #68]	; 0x44
 5101738:	e35300ff 	cmp	r3, #255	; 0xff
 510173c:	059d3004 	ldreq	r3, [sp, #4]
 5101740:	05c43044 	strbeq	r3, [r4, #68]	; 0x44
 5101744:	e5d43045 	ldrb	r3, [r4, #69]	; 0x45
 5101748:	e35300ff 	cmp	r3, #255	; 0xff
 510174c:	059d3004 	ldreq	r3, [sp, #4]
 5101750:	05c43045 	strbeq	r3, [r4, #69]	; 0x45
 5101754:	e12fff35 	blx	r5
        if( xTaskCheckForTimeOut( &xTimeOut, &xTicksToWait ) == pdFALSE )
 5101758:	e28d100c 	add	r1, sp, #12
 510175c:	e28d0010 	add	r0, sp, #16
 5101760:	e12fff38 	blx	r8
 5101764:	e3500000 	cmp	r0, #0
 5101768:	1a000012 	bne	51017b8 <xQueueReceive+0x144>
    taskENTER_CRITICAL();
 510176c:	e12fff36 	blx	r6
        if( pxQueue->uxMessagesWaiting == ( UBaseType_t ) 0 )
 5101770:	e5943038 	ldr	r3, [r4, #56]	; 0x38
 5101774:	e3530000 	cmp	r3, #0
 5101778:	0a000017 	beq	51017dc <xQueueReceive+0x168>
    taskEXIT_CRITICAL();
 510177c:	e12fff35 	blx	r5
                prvUnlockQueue( pxQueue );
 5101780:	e1a00004 	mov	r0, r4
 5101784:	ebfffde3 	bl	5100f18 <prvUnlockQueue>
                ( void ) xTaskResumeAll();
 5101788:	e12fff37 	blx	r7
        taskENTER_CRITICAL();
 510178c:	e12fff36 	blx	r6
            const UBaseType_t uxMessagesWaiting = pxQueue->uxMessagesWaiting;
 5101790:	e5943038 	ldr	r3, [r4, #56]	; 0x38
            if( uxMessagesWaiting > ( UBaseType_t ) 0 )
 5101794:	e3530000 	cmp	r3, #0
 5101798:	1a000032 	bne	5101868 <xQueueReceive+0x1f4>
                if( xTicksToWait == ( TickType_t ) 0 )
 510179c:	e59d300c 	ldr	r3, [sp, #12]
 51017a0:	e3530000 	cmp	r3, #0
 51017a4:	1affffdf 	bne	5101728 <xQueueReceive+0xb4>
                    taskEXIT_CRITICAL();
 51017a8:	e12fff35 	blx	r5
                    return errQUEUE_EMPTY;
 51017ac:	e3a00000 	mov	r0, #0
}
 51017b0:	e28dd01c 	add	sp, sp, #28
 51017b4:	e8bd8ff0 	pop	{r4, r5, r6, r7, r8, r9, sl, fp, pc}
            prvUnlockQueue( pxQueue );
 51017b8:	e1a00004 	mov	r0, r4
 51017bc:	ebfffdd5 	bl	5100f18 <prvUnlockQueue>
            ( void ) xTaskResumeAll();
 51017c0:	e12fff37 	blx	r7
    taskENTER_CRITICAL();
 51017c4:	e12fff36 	blx	r6
        if( pxQueue->uxMessagesWaiting == ( UBaseType_t ) 0 )
 51017c8:	e5943038 	ldr	r3, [r4, #56]	; 0x38
 51017cc:	e3530000 	cmp	r3, #0
 51017d0:	0afffff4 	beq	51017a8 <xQueueReceive+0x134>
    taskEXIT_CRITICAL();
 51017d4:	e12fff35 	blx	r5
 51017d8:	eaffffeb 	b	510178c <xQueueReceive+0x118>
 51017dc:	e12fff35 	blx	r5
                vTaskPlaceOnEventList( &( pxQueue->xTasksWaitingToReceive ), xTicksToWait );
 51017e0:	e59d100c 	ldr	r1, [sp, #12]
 51017e4:	e2840024 	add	r0, r4, #36	; 0x24
 51017e8:	e12fff3a 	blx	sl
                prvUnlockQueue( pxQueue );
 51017ec:	e1a00004 	mov	r0, r4
 51017f0:	ebfffdc8 	bl	5100f18 <prvUnlockQueue>
                if( xTaskResumeAll() == pdFALSE )
 51017f4:	e12fff37 	blx	r7
 51017f8:	e3500000 	cmp	r0, #0
 51017fc:	1affffe2 	bne	510178c <xQueueReceive+0x118>
                    taskYIELD_WITHIN_API();
 5101800:	e12fff3b 	blx	fp
        taskENTER_CRITICAL();
 5101804:	eaffffe0 	b	510178c <xQueueReceive+0x118>
    configASSERT( !( ( ( pvBuffer ) == NULL ) && ( ( pxQueue )->uxItemSize != ( UBaseType_t ) 0U ) ) );
 5101808:	e5943040 	ldr	r3, [r4, #64]	; 0x40
 510180c:	e3530000 	cmp	r3, #0
 5101810:	0affffa0 	beq	5101698 <xQueueReceive+0x24>
 5101814:	e30d0a74 	movw	r0, #55924	; 0xda74
 5101818:	e3003900 	movw	r3, #2304	; 0x900
 510181c:	e30015ed 	movw	r1, #1517	; 0x5ed
 5101820:	e3403511 	movt	r3, #1297	; 0x511
 5101824:	e3400512 	movt	r0, #1298	; 0x512
 5101828:	e12fff33 	blx	r3
 510182c:	eaffff99 	b	5101698 <xQueueReceive+0x24>
        configASSERT( !( ( xTaskGetSchedulerState() == taskSCHEDULER_SUSPENDED ) && ( xTicksToWait != 0 ) ) );
 5101830:	e30d0a74 	movw	r0, #55924	; 0xda74
 5101834:	e3003900 	movw	r3, #2304	; 0x900
 5101838:	e30015f2 	movw	r1, #1522	; 0x5f2
 510183c:	e3403511 	movt	r3, #1297	; 0x511
 5101840:	e3400512 	movt	r0, #1298	; 0x512
 5101844:	e12fff33 	blx	r3
 5101848:	eaffff9a 	b	51016b8 <xQueueReceive+0x44>
    configASSERT( ( pxQueue ) );
 510184c:	e30d0a74 	movw	r0, #55924	; 0xda74
 5101850:	e3003900 	movw	r3, #2304	; 0x900
 5101854:	e30015e9 	movw	r1, #1513	; 0x5e9
 5101858:	e3403511 	movt	r3, #1297	; 0x511
 510185c:	e3400512 	movt	r0, #1298	; 0x512
 5101860:	e12fff33 	blx	r3
 5101864:	eaffff88 	b	510168c <xQueueReceive+0x18>
    if( pxQueue->uxItemSize != ( UBaseType_t ) 0 )
 5101868:	e5942040 	ldr	r2, [r4, #64]	; 0x40
 510186c:	e3520000 	cmp	r2, #0
 5101870:	0a00000c 	beq	51018a8 <xQueueReceive+0x234>
        pxQueue->u.xQueue.pcReadFrom += pxQueue->uxItemSize;
 5101874:	e594100c 	ldr	r1, [r4, #12]
        ( void ) memcpy( ( void * ) pvBuffer, ( void * ) pxQueue->u.xQueue.pcReadFrom, ( size_t ) pxQueue->uxItemSize );
 5101878:	e3096ca1 	movw	r6, #40097	; 0x9ca1
        if( pxQueue->u.xQueue.pcReadFrom >= pxQueue->u.xQueue.pcTail )
 510187c:	e5940008 	ldr	r0, [r4, #8]
        ( void ) memcpy( ( void * ) pvBuffer, ( void * ) pxQueue->u.xQueue.pcReadFrom, ( size_t ) pxQueue->uxItemSize );
 5101880:	e3406511 	movt	r6, #1297	; 0x511
 5101884:	e58d3004 	str	r3, [sp, #4]
        pxQueue->u.xQueue.pcReadFrom += pxQueue->uxItemSize;
 5101888:	e0811002 	add	r1, r1, r2
        if( pxQueue->u.xQueue.pcReadFrom >= pxQueue->u.xQueue.pcTail )
 510188c:	e1510000 	cmp	r1, r0
        pxQueue->u.xQueue.pcReadFrom += pxQueue->uxItemSize;
 5101890:	e584100c 	str	r1, [r4, #12]
        ( void ) memcpy( ( void * ) pvBuffer, ( void * ) pxQueue->u.xQueue.pcReadFrom, ( size_t ) pxQueue->uxItemSize );
 5101894:	e59d0008 	ldr	r0, [sp, #8]
            pxQueue->u.xQueue.pcReadFrom = pxQueue->pcHead;
 5101898:	25941000 	ldrcs	r1, [r4]
 510189c:	2584100c 	strcs	r1, [r4, #12]
        ( void ) memcpy( ( void * ) pvBuffer, ( void * ) pxQueue->u.xQueue.pcReadFrom, ( size_t ) pxQueue->uxItemSize );
 51018a0:	e12fff36 	blx	r6
 51018a4:	e59d3004 	ldr	r3, [sp, #4]
                if( listLIST_IS_EMPTY( &( pxQueue->xTasksWaitingToSend ) ) == pdFALSE )
 51018a8:	e5942010 	ldr	r2, [r4, #16]
                pxQueue->uxMessagesWaiting = ( UBaseType_t ) ( uxMessagesWaiting - ( UBaseType_t ) 1 );
 51018ac:	e2433001 	sub	r3, r3, #1
 51018b0:	e5843038 	str	r3, [r4, #56]	; 0x38
                if( listLIST_IS_EMPTY( &( pxQueue->xTasksWaitingToSend ) ) == pdFALSE )
 51018b4:	e3520000 	cmp	r2, #0
 51018b8:	1a000003 	bne	51018cc <xQueueReceive+0x258>
                taskEXIT_CRITICAL();
 51018bc:	e12fff35 	blx	r5
                return pdPASS;
 51018c0:	e3a00001 	mov	r0, #1
}
 51018c4:	e28dd01c 	add	sp, sp, #28
 51018c8:	e8bd8ff0 	pop	{r4, r5, r6, r7, r8, r9, sl, fp, pc}
                    if( xTaskRemoveFromEventList( &( pxQueue->xTasksWaitingToSend ) ) != pdFALSE )
 51018cc:	e30638d0 	movw	r3, #26832	; 0x68d0
 51018d0:	e2840010 	add	r0, r4, #16
 51018d4:	e3403510 	movt	r3, #1296	; 0x510
 51018d8:	e12fff33 	blx	r3
 51018dc:	e3500000 	cmp	r0, #0
 51018e0:	0afffff5 	beq	51018bc <xQueueReceive+0x248>
                        queueYIELD_IF_USING_PREEMPTION();
 51018e4:	e3003000 	movw	r3, #0
 51018e8:	e3403511 	movt	r3, #1297	; 0x511
 51018ec:	e12fff33 	blx	r3
 51018f0:	eafffff1 	b	51018bc <xQueueReceive+0x248>
 51018f4:	e30c5988 	movw	r5, #51592	; 0xc988
 51018f8:	e3405510 	movt	r5, #1296	; 0x510
 51018fc:	eaffffa9 	b	51017a8 <xQueueReceive+0x134>

05101900 <uxQueueMessagesWaiting>:
{
 5101900:	e92d4010 	push	{r4, lr}
    configASSERT( xQueue );
 5101904:	e2504000 	subs	r4, r0, #0
{
 5101908:	e24dd008 	sub	sp, sp, #8
    configASSERT( xQueue );
 510190c:	0a00000a 	beq	510193c <uxQueueMessagesWaiting+0x3c>
    taskENTER_CRITICAL();
 5101910:	e30c3930 	movw	r3, #51504	; 0xc930
 5101914:	e3403510 	movt	r3, #1296	; 0x510
 5101918:	e12fff33 	blx	r3
        uxReturn = ( ( Queue_t * ) xQueue )->uxMessagesWaiting;
 510191c:	e5940038 	ldr	r0, [r4, #56]	; 0x38
 5101920:	e58d0004 	str	r0, [sp, #4]
    taskEXIT_CRITICAL();
 5101924:	e30c3988 	movw	r3, #51592	; 0xc988
 5101928:	e3403510 	movt	r3, #1296	; 0x510
 510192c:	e12fff33 	blx	r3
}
 5101930:	e59d0004 	ldr	r0, [sp, #4]
 5101934:	e28dd008 	add	sp, sp, #8
 5101938:	e8bd8010 	pop	{r4, pc}
    configASSERT( xQueue );
 510193c:	e30d0a74 	movw	r0, #55924	; 0xda74
 5101940:	e3003900 	movw	r3, #2304	; 0x900
 5101944:	e300189b 	movw	r1, #2203	; 0x89b
 5101948:	e3403511 	movt	r3, #1297	; 0x511
 510194c:	e3400512 	movt	r0, #1298	; 0x512
 5101950:	e12fff33 	blx	r3
 5101954:	eaffffed 	b	5101910 <uxQueueMessagesWaiting+0x10>

05101958 <uxQueueSpacesAvailable>:
{
 5101958:	e92d4010 	push	{r4, lr}
    configASSERT( pxQueue );
 510195c:	e2504000 	subs	r4, r0, #0
{
 5101960:	e24dd008 	sub	sp, sp, #8
    configASSERT( pxQueue );
 5101964:	0a00000c 	beq	510199c <uxQueueSpacesAvailable+0x44>
    taskENTER_CRITICAL();
 5101968:	e30c3930 	movw	r3, #51504	; 0xc930
 510196c:	e3403510 	movt	r3, #1296	; 0x510
 5101970:	e12fff33 	blx	r3
        uxReturn = ( UBaseType_t ) ( pxQueue->uxLength - pxQueue->uxMessagesWaiting );
 5101974:	e5942038 	ldr	r2, [r4, #56]	; 0x38
 5101978:	e594003c 	ldr	r0, [r4, #60]	; 0x3c
    taskEXIT_CRITICAL();
 510197c:	e30c3988 	movw	r3, #51592	; 0xc988
 5101980:	e3403510 	movt	r3, #1296	; 0x510
        uxReturn = ( UBaseType_t ) ( pxQueue->uxLength - pxQueue->uxMessagesWaiting );
 5101984:	e0400002 	sub	r0, r0, r2
 5101988:	e58d0004 	str	r0, [sp, #4]
    taskEXIT_CRITICAL();
 510198c:	e12fff33 	blx	r3
}
 5101990:	e59d0004 	ldr	r0, [sp, #4]
 5101994:	e28dd008 	add	sp, sp, #8
 5101998:	e8bd8010 	pop	{r4, pc}
    configASSERT( pxQueue );
 510199c:	e30d0a74 	movw	r0, #55924	; 0xda74
 51019a0:	e3003900 	movw	r3, #2304	; 0x900
 51019a4:	e3a01e8b 	mov	r1, #2224	; 0x8b0
 51019a8:	e3403511 	movt	r3, #1297	; 0x511
 51019ac:	e3400512 	movt	r0, #1298	; 0x512
 51019b0:	e12fff33 	blx	r3
 51019b4:	eaffffeb 	b	5101968 <uxQueueSpacesAvailable+0x10>

051019b8 <vQueueDelete>:
{
 51019b8:	e92d4070 	push	{r4, r5, r6, lr}
    configASSERT( pxQueue );
 51019bc:	e2504000 	subs	r4, r0, #0
 51019c0:	0a000015 	beq	5101a1c <vQueueDelete+0x64>
        for( ux = ( UBaseType_t ) 0U; ux < ( UBaseType_t ) configQUEUE_REGISTRY_SIZE; ux++ )
 51019c4:	e30c0d78 	movw	r0, #52600	; 0xcd78
 51019c8:	e3a03000 	mov	r3, #0
 51019cc:	e3400511 	movt	r0, #1297	; 0x511
            if( xQueueRegistry[ ux ].xHandle == xQueue )
 51019d0:	e0802183 	add	r2, r0, r3, lsl #3
 51019d4:	e5921004 	ldr	r1, [r2, #4]
 51019d8:	e1540001 	cmp	r4, r1
 51019dc:	0a00000a 	beq	5101a0c <vQueueDelete+0x54>
        for( ux = ( UBaseType_t ) 0U; ux < ( UBaseType_t ) configQUEUE_REGISTRY_SIZE; ux++ )
 51019e0:	e2833001 	add	r3, r3, #1
 51019e4:	e3530008 	cmp	r3, #8
 51019e8:	1afffff8 	bne	51019d0 <vQueueDelete+0x18>
        if( pxQueue->ucStaticallyAllocated == ( uint8_t ) pdFALSE )
 51019ec:	e5d43046 	ldrb	r3, [r4, #70]	; 0x46
 51019f0:	e3530000 	cmp	r3, #0
 51019f4:	18bd8070 	popne	{r4, r5, r6, pc}
            vPortFree( pxQueue );
 51019f8:	e308333c 	movw	r3, #33596	; 0x833c
 51019fc:	e1a00004 	mov	r0, r4
 5101a00:	e3403510 	movt	r3, #1296	; 0x510
 5101a04:	e12fff33 	blx	r3
}
 5101a08:	e8bd8070 	pop	{r4, r5, r6, pc}
                xQueueRegistry[ ux ].pcQueueName = NULL;
 5101a0c:	e3a01000 	mov	r1, #0
 5101a10:	e7801183 	str	r1, [r0, r3, lsl #3]
                xQueueRegistry[ ux ].xHandle = ( QueueHandle_t ) 0;
 5101a14:	e5821004 	str	r1, [r2, #4]
                break;
 5101a18:	eafffff3 	b	51019ec <vQueueDelete+0x34>
    configASSERT( pxQueue );
 5101a1c:	e30d0a74 	movw	r0, #55924	; 0xda74
 5101a20:	e3005900 	movw	r5, #2304	; 0x900
 5101a24:	e30018d4 	movw	r1, #2260	; 0x8d4
 5101a28:	e3405511 	movt	r5, #1297	; 0x511
 5101a2c:	e3400512 	movt	r0, #1298	; 0x512
 5101a30:	e12fff35 	blx	r5
        configASSERT( xQueue );
 5101a34:	e30d0a74 	movw	r0, #55924	; 0xda74
 5101a38:	e3001c1d 	movw	r1, #3101	; 0xc1d
 5101a3c:	e3400512 	movt	r0, #1298	; 0x512
 5101a40:	e12fff35 	blx	r5
 5101a44:	eaffffde 	b	51019c4 <vQueueDelete+0xc>

05101a48 <xQueueGenericSendFromISR>:
{
 5101a48:	e92d41f0 	push	{r4, r5, r6, r7, r8, lr}
 5101a4c:	e1a07001 	mov	r7, r1
    configASSERT( pxQueue );
 5101a50:	e2504000 	subs	r4, r0, #0
{
 5101a54:	e1a08002 	mov	r8, r2
 5101a58:	e1a05003 	mov	r5, r3
    configASSERT( pxQueue );
 5101a5c:	0a000053 	beq	5101bb0 <xQueueGenericSendFromISR+0x168>
    configASSERT( !( ( pvItemToQueue == NULL ) && ( pxQueue->uxItemSize != ( UBaseType_t ) 0U ) ) );
 5101a60:	e3570000 	cmp	r7, #0
 5101a64:	0a000031 	beq	5101b30 <xQueueGenericSendFromISR+0xe8>
    configASSERT( !( ( xCopyPosition == queueOVERWRITE ) && ( pxQueue->uxLength != 1 ) ) );
 5101a68:	e3550002 	cmp	r5, #2
 5101a6c:	0a000005 	beq	5101a88 <xQueueGenericSendFromISR+0x40>
        if( ( pxQueue->uxMessagesWaiting < pxQueue->uxLength ) || ( xCopyPosition == queueOVERWRITE ) )
 5101a70:	e5942038 	ldr	r2, [r4, #56]	; 0x38
 5101a74:	e594303c 	ldr	r3, [r4, #60]	; 0x3c
 5101a78:	e1520003 	cmp	r2, r3
 5101a7c:	3a000005 	bcc	5101a98 <xQueueGenericSendFromISR+0x50>
            xReturn = errQUEUE_FULL;
 5101a80:	e3a00000 	mov	r0, #0
}
 5101a84:	e8bd81f0 	pop	{r4, r5, r6, r7, r8, pc}
    configASSERT( !( ( xCopyPosition == queueOVERWRITE ) && ( pxQueue->uxLength != 1 ) ) );
 5101a88:	e594303c 	ldr	r3, [r4, #60]	; 0x3c
 5101a8c:	e3530001 	cmp	r3, #1
 5101a90:	1a000030 	bne	5101b58 <xQueueGenericSendFromISR+0x110>
        if( ( pxQueue->uxMessagesWaiting < pxQueue->uxLength ) || ( xCopyPosition == queueOVERWRITE ) )
 5101a94:	e5943038 	ldr	r3, [r4, #56]	; 0x38
            const int8_t cTxLock = pxQueue->cTxLock;
 5101a98:	e5d46045 	ldrb	r6, [r4, #69]	; 0x45
            ( void ) prvCopyDataToQueue( pxQueue, pvItemToQueue, xCopyPosition );
 5101a9c:	e1a01007 	mov	r1, r7
 5101aa0:	e1a02005 	mov	r2, r5
            const int8_t cTxLock = pxQueue->cTxLock;
 5101aa4:	e6af6076 	sxtb	r6, r6
            const UBaseType_t uxPreviousMessagesWaiting = pxQueue->uxMessagesWaiting;
 5101aa8:	e5947038 	ldr	r7, [r4, #56]	; 0x38
            ( void ) prvCopyDataToQueue( pxQueue, pvItemToQueue, xCopyPosition );
 5101aac:	e1a00004 	mov	r0, r4
 5101ab0:	ebfffc96 	bl	5100d10 <prvCopyDataToQueue>
            if( cTxLock == queueUNLOCKED )
 5101ab4:	e3760001 	cmn	r6, #1
 5101ab8:	1a000010 	bne	5101b00 <xQueueGenericSendFromISR+0xb8>
                    if( pxQueue->pxQueueSetContainer != NULL )
 5101abc:	e5943048 	ldr	r3, [r4, #72]	; 0x48
 5101ac0:	e3530000 	cmp	r3, #0
 5101ac4:	0a00002b 	beq	5101b78 <xQueueGenericSendFromISR+0x130>
                        if( ( xCopyPosition == queueOVERWRITE ) && ( uxPreviousMessagesWaiting != ( UBaseType_t ) 0 ) )
 5101ac8:	e2455002 	sub	r5, r5, #2
 5101acc:	e16f5f15 	clz	r5, r5
 5101ad0:	e3570000 	cmp	r7, #0
 5101ad4:	e1a052a5 	lsr	r5, r5, #5
 5101ad8:	03a05000 	moveq	r5, #0
 5101adc:	e3550000 	cmp	r5, #0
 5101ae0:	1a000004 	bne	5101af8 <xQueueGenericSendFromISR+0xb0>
                        else if( prvNotifyQueueSetContainer( pxQueue ) != pdFALSE )
 5101ae4:	e1a00004 	mov	r0, r4
 5101ae8:	ebfffcc2 	bl	5100df8 <prvNotifyQueueSetContainer>
                            if( pxHigherPriorityTaskWoken != NULL )
 5101aec:	e3500000 	cmp	r0, #0
 5101af0:	13580000 	cmpne	r8, #0
 5101af4:	1a000029 	bne	5101ba0 <xQueueGenericSendFromISR+0x158>
            xReturn = pdPASS;
 5101af8:	e3a00001 	mov	r0, #1
 5101afc:	e8bd81f0 	pop	{r4, r5, r6, r7, r8, pc}
                prvIncrementQueueTxLock( pxQueue, cTxLock );
 5101b00:	e30532d8 	movw	r3, #21208	; 0x52d8
 5101b04:	e3403510 	movt	r3, #1296	; 0x510
 5101b08:	e12fff33 	blx	r3
 5101b0c:	e1560000 	cmp	r6, r0
 5101b10:	2afffff8 	bcs	5101af8 <xQueueGenericSendFromISR+0xb0>
 5101b14:	e356007f 	cmp	r6, #127	; 0x7f
 5101b18:	0a00002b 	beq	5101bcc <xQueueGenericSendFromISR+0x184>
            xReturn = pdPASS;
 5101b1c:	e3a00001 	mov	r0, #1
                prvIncrementQueueTxLock( pxQueue, cTxLock );
 5101b20:	e2866001 	add	r6, r6, #1
 5101b24:	e6af6076 	sxtb	r6, r6
 5101b28:	e5c46045 	strb	r6, [r4, #69]	; 0x45
    return xReturn;
 5101b2c:	e8bd81f0 	pop	{r4, r5, r6, r7, r8, pc}
    configASSERT( !( ( pvItemToQueue == NULL ) && ( pxQueue->uxItemSize != ( UBaseType_t ) 0U ) ) );
 5101b30:	e5943040 	ldr	r3, [r4, #64]	; 0x40
 5101b34:	e3530000 	cmp	r3, #0
 5101b38:	0affffca 	beq	5101a68 <xQueueGenericSendFromISR+0x20>
 5101b3c:	e30d0a74 	movw	r0, #55924	; 0xda74
 5101b40:	e3003900 	movw	r3, #2304	; 0x900
 5101b44:	e3001491 	movw	r1, #1169	; 0x491
 5101b48:	e3403511 	movt	r3, #1297	; 0x511
 5101b4c:	e3400512 	movt	r0, #1298	; 0x512
 5101b50:	e12fff33 	blx	r3
 5101b54:	eaffffc3 	b	5101a68 <xQueueGenericSendFromISR+0x20>
    configASSERT( !( ( xCopyPosition == queueOVERWRITE ) && ( pxQueue->uxLength != 1 ) ) );
 5101b58:	e30d0a74 	movw	r0, #55924	; 0xda74
 5101b5c:	e3003900 	movw	r3, #2304	; 0x900
 5101b60:	e3001492 	movw	r1, #1170	; 0x492
 5101b64:	e3403511 	movt	r3, #1297	; 0x511
 5101b68:	e3400512 	movt	r0, #1298	; 0x512
 5101b6c:	e12fff33 	blx	r3
        if( ( pxQueue->uxMessagesWaiting < pxQueue->uxLength ) || ( xCopyPosition == queueOVERWRITE ) )
 5101b70:	e5943038 	ldr	r3, [r4, #56]	; 0x38
 5101b74:	eaffffc7 	b	5101a98 <xQueueGenericSendFromISR+0x50>
                        if( listLIST_IS_EMPTY( &( pxQueue->xTasksWaitingToReceive ) ) == pdFALSE )
 5101b78:	e5943024 	ldr	r3, [r4, #36]	; 0x24
 5101b7c:	e3530000 	cmp	r3, #0
 5101b80:	0affffdc 	beq	5101af8 <xQueueGenericSendFromISR+0xb0>
                            if( xTaskRemoveFromEventList( &( pxQueue->xTasksWaitingToReceive ) ) != pdFALSE )
 5101b84:	e30638d0 	movw	r3, #26832	; 0x68d0
 5101b88:	e2840024 	add	r0, r4, #36	; 0x24
 5101b8c:	e3403510 	movt	r3, #1296	; 0x510
 5101b90:	e12fff33 	blx	r3
                                if( pxHigherPriorityTaskWoken != NULL )
 5101b94:	e3500000 	cmp	r0, #0
 5101b98:	13580000 	cmpne	r8, #0
 5101b9c:	0affffd5 	beq	5101af8 <xQueueGenericSendFromISR+0xb0>
                                *pxHigherPriorityTaskWoken = pdTRUE;
 5101ba0:	e3a03001 	mov	r3, #1
            xReturn = pdPASS;
 5101ba4:	e1a00003 	mov	r0, r3
                                *pxHigherPriorityTaskWoken = pdTRUE;
 5101ba8:	e5883000 	str	r3, [r8]
 5101bac:	e8bd81f0 	pop	{r4, r5, r6, r7, r8, pc}
    configASSERT( pxQueue );
 5101bb0:	e30d0a74 	movw	r0, #55924	; 0xda74
 5101bb4:	e3003900 	movw	r3, #2304	; 0x900
 5101bb8:	e3a01e49 	mov	r1, #1168	; 0x490
 5101bbc:	e3403511 	movt	r3, #1297	; 0x511
 5101bc0:	e3400512 	movt	r0, #1298	; 0x512
 5101bc4:	e12fff33 	blx	r3
 5101bc8:	eaffffa4 	b	5101a60 <xQueueGenericSendFromISR+0x18>
                prvIncrementQueueTxLock( pxQueue, cTxLock );
 5101bcc:	e30d0a74 	movw	r0, #55924	; 0xda74
 5101bd0:	e3003900 	movw	r3, #2304	; 0x900
 5101bd4:	e300151e 	movw	r1, #1310	; 0x51e
 5101bd8:	e3403511 	movt	r3, #1297	; 0x511
 5101bdc:	e3400512 	movt	r0, #1298	; 0x512
 5101be0:	e12fff33 	blx	r3
 5101be4:	eaffffcc 	b	5101b1c <xQueueGenericSendFromISR+0xd4>

05101be8 <xQueueGiveFromISR>:
{
 5101be8:	e92d4070 	push	{r4, r5, r6, lr}
 5101bec:	e1a05001 	mov	r5, r1
    configASSERT( pxQueue );
 5101bf0:	e2504000 	subs	r4, r0, #0
 5101bf4:	0a000048 	beq	5101d1c <xQueueGiveFromISR+0x134>
    configASSERT( pxQueue->uxItemSize == 0 );
 5101bf8:	e5943040 	ldr	r3, [r4, #64]	; 0x40
 5101bfc:	e3530000 	cmp	r3, #0
 5101c00:	1a000024 	bne	5101c98 <xQueueGiveFromISR+0xb0>
    configASSERT( !( ( pxQueue->uxQueueType == queueQUEUE_IS_MUTEX ) && ( pxQueue->u.xSemaphore.xMutexHolder != NULL ) ) );
 5101c04:	e5943000 	ldr	r3, [r4]
 5101c08:	e3530000 	cmp	r3, #0
 5101c0c:	0a00002a 	beq	5101cbc <xQueueGiveFromISR+0xd4>
        const UBaseType_t uxMessagesWaiting = pxQueue->uxMessagesWaiting;
 5101c10:	e5943038 	ldr	r3, [r4, #56]	; 0x38
        if( uxMessagesWaiting < pxQueue->uxLength )
 5101c14:	e594203c 	ldr	r2, [r4, #60]	; 0x3c
 5101c18:	e1520003 	cmp	r2, r3
 5101c1c:	9a00000f 	bls	5101c60 <xQueueGiveFromISR+0x78>
            const int8_t cTxLock = pxQueue->cTxLock;
 5101c20:	e5d42045 	ldrb	r2, [r4, #69]	; 0x45
            pxQueue->uxMessagesWaiting = ( UBaseType_t ) ( uxMessagesWaiting + ( UBaseType_t ) 1 );
 5101c24:	e2833001 	add	r3, r3, #1
            if( cTxLock == queueUNLOCKED )
 5101c28:	e35200ff 	cmp	r2, #255	; 0xff
            pxQueue->uxMessagesWaiting = ( UBaseType_t ) ( uxMessagesWaiting + ( UBaseType_t ) 1 );
 5101c2c:	e5843038 	str	r3, [r4, #56]	; 0x38
            const int8_t cTxLock = pxQueue->cTxLock;
 5101c30:	e6af6072 	sxtb	r6, r2
            if( cTxLock == queueUNLOCKED )
 5101c34:	1a00000b 	bne	5101c68 <xQueueGiveFromISR+0x80>
                    if( pxQueue->pxQueueSetContainer != NULL )
 5101c38:	e5943048 	ldr	r3, [r4, #72]	; 0x48
 5101c3c:	e3530000 	cmp	r3, #0
 5101c40:	0a000027 	beq	5101ce4 <xQueueGiveFromISR+0xfc>
                        if( prvNotifyQueueSetContainer( pxQueue ) != pdFALSE )
 5101c44:	e1a00004 	mov	r0, r4
 5101c48:	ebfffc6a 	bl	5100df8 <prvNotifyQueueSetContainer>
                            if( pxHigherPriorityTaskWoken != NULL )
 5101c4c:	e3550000 	cmp	r5, #0
 5101c50:	13500000 	cmpne	r0, #0
 5101c54:	1a00002c 	bne	5101d0c <xQueueGiveFromISR+0x124>
            xReturn = pdPASS;
 5101c58:	e3a00001 	mov	r0, #1
 5101c5c:	e8bd8070 	pop	{r4, r5, r6, pc}
            xReturn = errQUEUE_FULL;
 5101c60:	e3a00000 	mov	r0, #0
}
 5101c64:	e8bd8070 	pop	{r4, r5, r6, pc}
                prvIncrementQueueTxLock( pxQueue, cTxLock );
 5101c68:	e30532d8 	movw	r3, #21208	; 0x52d8
 5101c6c:	e3403510 	movt	r3, #1296	; 0x510
 5101c70:	e12fff33 	blx	r3
 5101c74:	e1560000 	cmp	r6, r0
 5101c78:	2afffff6 	bcs	5101c58 <xQueueGiveFromISR+0x70>
 5101c7c:	e356007f 	cmp	r6, #127	; 0x7f
 5101c80:	0a00002c 	beq	5101d38 <xQueueGiveFromISR+0x150>
            xReturn = pdPASS;
 5101c84:	e3a00001 	mov	r0, #1
                prvIncrementQueueTxLock( pxQueue, cTxLock );
 5101c88:	e2862001 	add	r2, r6, #1
 5101c8c:	e6af2072 	sxtb	r2, r2
 5101c90:	e5c42045 	strb	r2, [r4, #69]	; 0x45
 5101c94:	e8bd8070 	pop	{r4, r5, r6, pc}
    configASSERT( pxQueue->uxItemSize == 0 );
 5101c98:	e30d0a74 	movw	r0, #55924	; 0xda74
 5101c9c:	e3003900 	movw	r3, #2304	; 0x900
 5101ca0:	e3001544 	movw	r1, #1348	; 0x544
 5101ca4:	e3403511 	movt	r3, #1297	; 0x511
 5101ca8:	e3400512 	movt	r0, #1298	; 0x512
 5101cac:	e12fff33 	blx	r3
    configASSERT( !( ( pxQueue->uxQueueType == queueQUEUE_IS_MUTEX ) && ( pxQueue->u.xSemaphore.xMutexHolder != NULL ) ) );
 5101cb0:	e5943000 	ldr	r3, [r4]
 5101cb4:	e3530000 	cmp	r3, #0
 5101cb8:	1affffd4 	bne	5101c10 <xQueueGiveFromISR+0x28>
 5101cbc:	e5943008 	ldr	r3, [r4, #8]
 5101cc0:	e3530000 	cmp	r3, #0
 5101cc4:	0affffd1 	beq	5101c10 <xQueueGiveFromISR+0x28>
 5101cc8:	e30d0a74 	movw	r0, #55924	; 0xda74
 5101ccc:	e3003900 	movw	r3, #2304	; 0x900
 5101cd0:	e3001549 	movw	r1, #1353	; 0x549
 5101cd4:	e3403511 	movt	r3, #1297	; 0x511
 5101cd8:	e3400512 	movt	r0, #1298	; 0x512
 5101cdc:	e12fff33 	blx	r3
 5101ce0:	eaffffca 	b	5101c10 <xQueueGiveFromISR+0x28>
                        if( listLIST_IS_EMPTY( &( pxQueue->xTasksWaitingToReceive ) ) == pdFALSE )
 5101ce4:	e5943024 	ldr	r3, [r4, #36]	; 0x24
 5101ce8:	e3530000 	cmp	r3, #0
 5101cec:	0affffd9 	beq	5101c58 <xQueueGiveFromISR+0x70>
                            if( xTaskRemoveFromEventList( &( pxQueue->xTasksWaitingToReceive ) ) != pdFALSE )
 5101cf0:	e30638d0 	movw	r3, #26832	; 0x68d0
 5101cf4:	e2840024 	add	r0, r4, #36	; 0x24
 5101cf8:	e3403510 	movt	r3, #1296	; 0x510
 5101cfc:	e12fff33 	blx	r3
                                if( pxHigherPriorityTaskWoken != NULL )
 5101d00:	e3500000 	cmp	r0, #0
 5101d04:	13550000 	cmpne	r5, #0
 5101d08:	0affffd2 	beq	5101c58 <xQueueGiveFromISR+0x70>
                                *pxHigherPriorityTaskWoken = pdTRUE;
 5101d0c:	e3a03001 	mov	r3, #1
            xReturn = pdPASS;
 5101d10:	e1a00003 	mov	r0, r3
                                *pxHigherPriorityTaskWoken = pdTRUE;
 5101d14:	e5853000 	str	r3, [r5]
 5101d18:	e8bd8070 	pop	{r4, r5, r6, pc}
    configASSERT( pxQueue );
 5101d1c:	e30d0a74 	movw	r0, #55924	; 0xda74
 5101d20:	e3003900 	movw	r3, #2304	; 0x900
 5101d24:	e3a01d15 	mov	r1, #1344	; 0x540
 5101d28:	e3403511 	movt	r3, #1297	; 0x511
 5101d2c:	e3400512 	movt	r0, #1298	; 0x512
 5101d30:	e12fff33 	blx	r3
 5101d34:	eaffffaf 	b	5101bf8 <xQueueGiveFromISR+0x10>
                prvIncrementQueueTxLock( pxQueue, cTxLock );
 5101d38:	e30d0a74 	movw	r0, #55924	; 0xda74
 5101d3c:	e3003900 	movw	r3, #2304	; 0x900
 5101d40:	e30015cb 	movw	r1, #1483	; 0x5cb
 5101d44:	e3403511 	movt	r3, #1297	; 0x511
 5101d48:	e3400512 	movt	r0, #1298	; 0x512
 5101d4c:	e12fff33 	blx	r3
 5101d50:	eaffffcb 	b	5101c84 <xQueueGiveFromISR+0x9c>

05101d54 <xQueueReceiveFromISR>:
{
 5101d54:	e92d41f0 	push	{r4, r5, r6, r7, r8, lr}
 5101d58:	e1a05001 	mov	r5, r1
    configASSERT( pxQueue );
 5101d5c:	e2504000 	subs	r4, r0, #0
{
 5101d60:	e1a07002 	mov	r7, r2
    configASSERT( pxQueue );
 5101d64:	0a000037 	beq	5101e48 <xQueueReceiveFromISR+0xf4>
    configASSERT( !( ( pvBuffer == NULL ) && ( pxQueue->uxItemSize != ( UBaseType_t ) 0U ) ) );
 5101d68:	e3550000 	cmp	r5, #0
 5101d6c:	0a000004 	beq	5101d84 <xQueueReceiveFromISR+0x30>
        const UBaseType_t uxMessagesWaiting = pxQueue->uxMessagesWaiting;
 5101d70:	e5946038 	ldr	r6, [r4, #56]	; 0x38
        if( uxMessagesWaiting > ( UBaseType_t ) 0 )
 5101d74:	e3560000 	cmp	r6, #0
 5101d78:	1a000012 	bne	5101dc8 <xQueueReceiveFromISR+0x74>
            xReturn = pdFAIL;
 5101d7c:	e3a00000 	mov	r0, #0
 5101d80:	e8bd81f0 	pop	{r4, r5, r6, r7, r8, pc}
    configASSERT( !( ( pvBuffer == NULL ) && ( pxQueue->uxItemSize != ( UBaseType_t ) 0U ) ) );
 5101d84:	e5943040 	ldr	r3, [r4, #64]	; 0x40
 5101d88:	e3530000 	cmp	r3, #0
 5101d8c:	1a000034 	bne	5101e64 <xQueueReceiveFromISR+0x110>
        const UBaseType_t uxMessagesWaiting = pxQueue->uxMessagesWaiting;
 5101d90:	e5946038 	ldr	r6, [r4, #56]	; 0x38
        if( uxMessagesWaiting > ( UBaseType_t ) 0 )
 5101d94:	e3560000 	cmp	r6, #0
 5101d98:	0afffff7 	beq	5101d7c <xQueueReceiveFromISR+0x28>
            const int8_t cRxLock = pxQueue->cRxLock;
 5101d9c:	e5d48044 	ldrb	r8, [r4, #68]	; 0x44
 5101da0:	e6af8078 	sxtb	r8, r8
            pxQueue->uxMessagesWaiting = ( UBaseType_t ) ( uxMessagesWaiting - ( UBaseType_t ) 1 );
 5101da4:	e2466001 	sub	r6, r6, #1
            if( cRxLock == queueUNLOCKED )
 5101da8:	e3780001 	cmn	r8, #1
            pxQueue->uxMessagesWaiting = ( UBaseType_t ) ( uxMessagesWaiting - ( UBaseType_t ) 1 );
 5101dac:	e5846038 	str	r6, [r4, #56]	; 0x38
            if( cRxLock == queueUNLOCKED )
 5101db0:	1a000018 	bne	5101e18 <xQueueReceiveFromISR+0xc4>
                if( listLIST_IS_EMPTY( &( pxQueue->xTasksWaitingToSend ) ) == pdFALSE )
 5101db4:	e5943010 	ldr	r3, [r4, #16]
 5101db8:	e3530000 	cmp	r3, #0
 5101dbc:	1a00002f 	bne	5101e80 <xQueueReceiveFromISR+0x12c>
            xReturn = pdPASS;
 5101dc0:	e3a00001 	mov	r0, #1
 5101dc4:	e8bd81f0 	pop	{r4, r5, r6, r7, r8, pc}
    if( pxQueue->uxItemSize != ( UBaseType_t ) 0 )
 5101dc8:	e5942040 	ldr	r2, [r4, #64]	; 0x40
            const int8_t cRxLock = pxQueue->cRxLock;
 5101dcc:	e5d48044 	ldrb	r8, [r4, #68]	; 0x44
 5101dd0:	e6af8078 	sxtb	r8, r8
    if( pxQueue->uxItemSize != ( UBaseType_t ) 0 )
 5101dd4:	e3520000 	cmp	r2, #0
 5101dd8:	0afffff1 	beq	5101da4 <xQueueReceiveFromISR+0x50>
        pxQueue->u.xQueue.pcReadFrom += pxQueue->uxItemSize;
 5101ddc:	e594100c 	ldr	r1, [r4, #12]
        ( void ) memcpy( ( void * ) pvBuffer, ( void * ) pxQueue->u.xQueue.pcReadFrom, ( size_t ) pxQueue->uxItemSize );
 5101de0:	e1a00005 	mov	r0, r5
        if( pxQueue->u.xQueue.pcReadFrom >= pxQueue->u.xQueue.pcTail )
 5101de4:	e5943008 	ldr	r3, [r4, #8]
            pxQueue->uxMessagesWaiting = ( UBaseType_t ) ( uxMessagesWaiting - ( UBaseType_t ) 1 );
 5101de8:	e2466001 	sub	r6, r6, #1
        pxQueue->u.xQueue.pcReadFrom += pxQueue->uxItemSize;
 5101dec:	e0811002 	add	r1, r1, r2
        if( pxQueue->u.xQueue.pcReadFrom >= pxQueue->u.xQueue.pcTail )
 5101df0:	e1510003 	cmp	r1, r3
        pxQueue->u.xQueue.pcReadFrom += pxQueue->uxItemSize;
 5101df4:	e584100c 	str	r1, [r4, #12]
        ( void ) memcpy( ( void * ) pvBuffer, ( void * ) pxQueue->u.xQueue.pcReadFrom, ( size_t ) pxQueue->uxItemSize );
 5101df8:	e3093ca1 	movw	r3, #40097	; 0x9ca1
 5101dfc:	e3403511 	movt	r3, #1297	; 0x511
            pxQueue->u.xQueue.pcReadFrom = pxQueue->pcHead;
 5101e00:	25941000 	ldrcs	r1, [r4]
 5101e04:	2584100c 	strcs	r1, [r4, #12]
        ( void ) memcpy( ( void * ) pvBuffer, ( void * ) pxQueue->u.xQueue.pcReadFrom, ( size_t ) pxQueue->uxItemSize );
 5101e08:	e12fff33 	blx	r3
            pxQueue->uxMessagesWaiting = ( UBaseType_t ) ( uxMessagesWaiting - ( UBaseType_t ) 1 );
 5101e0c:	e5846038 	str	r6, [r4, #56]	; 0x38
            if( cRxLock == queueUNLOCKED )
 5101e10:	e3780001 	cmn	r8, #1
 5101e14:	0affffe6 	beq	5101db4 <xQueueReceiveFromISR+0x60>
                prvIncrementQueueRxLock( pxQueue, cRxLock );
 5101e18:	e30532d8 	movw	r3, #21208	; 0x52d8
 5101e1c:	e3403510 	movt	r3, #1296	; 0x510
 5101e20:	e12fff33 	blx	r3
 5101e24:	e1580000 	cmp	r8, r0
 5101e28:	2affffe4 	bcs	5101dc0 <xQueueReceiveFromISR+0x6c>
 5101e2c:	e358007f 	cmp	r8, #127	; 0x7f
 5101e30:	0a00001d 	beq	5101eac <xQueueReceiveFromISR+0x158>
            xReturn = pdPASS;
 5101e34:	e3a00001 	mov	r0, #1
                prvIncrementQueueRxLock( pxQueue, cRxLock );
 5101e38:	e2888001 	add	r8, r8, #1
 5101e3c:	e6af8078 	sxtb	r8, r8
 5101e40:	e5c48044 	strb	r8, [r4, #68]	; 0x44
}
 5101e44:	e8bd81f0 	pop	{r4, r5, r6, r7, r8, pc}
    configASSERT( pxQueue );
 5101e48:	e30d0a74 	movw	r0, #55924	; 0xda74
 5101e4c:	e3003900 	movw	r3, #2304	; 0x900
 5101e50:	e30017fd 	movw	r1, #2045	; 0x7fd
 5101e54:	e3403511 	movt	r3, #1297	; 0x511
 5101e58:	e3400512 	movt	r0, #1298	; 0x512
 5101e5c:	e12fff33 	blx	r3
 5101e60:	eaffffc0 	b	5101d68 <xQueueReceiveFromISR+0x14>
    configASSERT( !( ( pvBuffer == NULL ) && ( pxQueue->uxItemSize != ( UBaseType_t ) 0U ) ) );
 5101e64:	e30d0a74 	movw	r0, #55924	; 0xda74
 5101e68:	e3003900 	movw	r3, #2304	; 0x900
 5101e6c:	e30017fe 	movw	r1, #2046	; 0x7fe
 5101e70:	e3403511 	movt	r3, #1297	; 0x511
 5101e74:	e3400512 	movt	r0, #1298	; 0x512
 5101e78:	e12fff33 	blx	r3
 5101e7c:	eaffffbb 	b	5101d70 <xQueueReceiveFromISR+0x1c>
                    if( xTaskRemoveFromEventList( &( pxQueue->xTasksWaitingToSend ) ) != pdFALSE )
 5101e80:	e30638d0 	movw	r3, #26832	; 0x68d0
 5101e84:	e2840010 	add	r0, r4, #16
 5101e88:	e3403510 	movt	r3, #1296	; 0x510
 5101e8c:	e12fff33 	blx	r3
                        if( pxHigherPriorityTaskWoken != NULL )
 5101e90:	e3570000 	cmp	r7, #0
 5101e94:	13500000 	cmpne	r0, #0
 5101e98:	0affffc8 	beq	5101dc0 <xQueueReceiveFromISR+0x6c>
                            *pxHigherPriorityTaskWoken = pdTRUE;
 5101e9c:	e3a03001 	mov	r3, #1
            xReturn = pdPASS;
 5101ea0:	e1a00003 	mov	r0, r3
                            *pxHigherPriorityTaskWoken = pdTRUE;
 5101ea4:	e5873000 	str	r3, [r7]
 5101ea8:	e8bd81f0 	pop	{r4, r5, r6, r7, r8, pc}
                prvIncrementQueueRxLock( pxQueue, cRxLock );
 5101eac:	e30d0a74 	movw	r0, #55924	; 0xda74
 5101eb0:	e3003900 	movw	r3, #2304	; 0x900
 5101eb4:	e3001844 	movw	r1, #2116	; 0x844
 5101eb8:	e3403511 	movt	r3, #1297	; 0x511
 5101ebc:	e3400512 	movt	r0, #1298	; 0x512
 5101ec0:	e12fff33 	blx	r3
 5101ec4:	eaffffda 	b	5101e34 <xQueueReceiveFromISR+0xe0>

05101ec8 <xQueueIsQueueEmptyFromISR>:
{
 5101ec8:	e92d4010 	push	{r4, lr}
    configASSERT( pxQueue );
 5101ecc:	e2504000 	subs	r4, r0, #0
 5101ed0:	0a000003 	beq	5101ee4 <xQueueIsQueueEmptyFromISR+0x1c>
    if( pxQueue->uxMessagesWaiting == ( UBaseType_t ) 0 )
 5101ed4:	e5940038 	ldr	r0, [r4, #56]	; 0x38
}
 5101ed8:	e16f0f10 	clz	r0, r0
 5101edc:	e1a002a0 	lsr	r0, r0, #5
 5101ee0:	e8bd8010 	pop	{r4, pc}
    configASSERT( pxQueue );
 5101ee4:	e30d0a74 	movw	r0, #55924	; 0xda74
 5101ee8:	e3003900 	movw	r3, #2304	; 0x900
 5101eec:	e3001a52 	movw	r1, #2642	; 0xa52
 5101ef0:	e3403511 	movt	r3, #1297	; 0x511
 5101ef4:	e3400512 	movt	r0, #1298	; 0x512
 5101ef8:	e12fff33 	blx	r3
 5101efc:	eafffff4 	b	5101ed4 <xQueueIsQueueEmptyFromISR+0xc>

05101f00 <xQueueIsQueueFullFromISR>:
{
 5101f00:	e92d4010 	push	{r4, lr}
    configASSERT( pxQueue );
 5101f04:	e2504000 	subs	r4, r0, #0
 5101f08:	0a000005 	beq	5101f24 <xQueueIsQueueFullFromISR+0x24>
    if( pxQueue->uxMessagesWaiting == pxQueue->uxLength )
 5101f0c:	e5943038 	ldr	r3, [r4, #56]	; 0x38
 5101f10:	e594003c 	ldr	r0, [r4, #60]	; 0x3c
}
 5101f14:	e0400003 	sub	r0, r0, r3
 5101f18:	e16f0f10 	clz	r0, r0
 5101f1c:	e1a002a0 	lsr	r0, r0, #5
 5101f20:	e8bd8010 	pop	{r4, pc}
    configASSERT( pxQueue );
 5101f24:	e30d0a74 	movw	r0, #55924	; 0xda74
 5101f28:	e3003900 	movw	r3, #2304	; 0x900
 5101f2c:	e3001a7f 	movw	r1, #2687	; 0xa7f
 5101f30:	e3403511 	movt	r3, #1297	; 0x511
 5101f34:	e3400512 	movt	r0, #1298	; 0x512
 5101f38:	e12fff33 	blx	r3
 5101f3c:	eafffff2 	b	5101f0c <xQueueIsQueueFullFromISR+0xc>

05101f40 <uxQueueMessagesWaitingFromISR>:
{
 5101f40:	e92d4010 	push	{r4, lr}
    configASSERT( pxQueue );
 5101f44:	e2504000 	subs	r4, r0, #0
 5101f48:	0a000001 	beq	5101f54 <uxQueueMessagesWaitingFromISR+0x14>
    uxReturn = pxQueue->uxMessagesWaiting;
 5101f4c:	e5940038 	ldr	r0, [r4, #56]	; 0x38
}
 5101f50:	e8bd8010 	pop	{r4, pc}
    configASSERT( pxQueue );
 5101f54:	e30d0a74 	movw	r0, #55924	; 0xda74
 5101f58:	e3003900 	movw	r3, #2304	; 0x900
 5101f5c:	e30018c5 	movw	r1, #2245	; 0x8c5
 5101f60:	e3403511 	movt	r3, #1297	; 0x511
 5101f64:	e3400512 	movt	r0, #1298	; 0x512
 5101f68:	e12fff33 	blx	r3
    uxReturn = pxQueue->uxMessagesWaiting;
 5101f6c:	e5940038 	ldr	r0, [r4, #56]	; 0x38
}
 5101f70:	e8bd8010 	pop	{r4, pc}

05101f74 <xQueueSemaphoreTake>:
{
 5101f74:	e92d4ff0 	push	{r4, r5, r6, r7, r8, r9, sl, fp, lr}
    configASSERT( ( pxQueue ) );
 5101f78:	e2504000 	subs	r4, r0, #0
{
 5101f7c:	e24dd014 	sub	sp, sp, #20
 5101f80:	e58d1004 	str	r1, [sp, #4]
    configASSERT( ( pxQueue ) );
 5101f84:	0a000092 	beq	51021d4 <xQueueSemaphoreTake+0x260>
    configASSERT( pxQueue->uxItemSize == 0 );
 5101f88:	e5943040 	ldr	r3, [r4, #64]	; 0x40
 5101f8c:	e3530000 	cmp	r3, #0
 5101f90:	1a000072 	bne	5102160 <xQueueSemaphoreTake+0x1ec>
        configASSERT( !( ( xTaskGetSchedulerState() == taskSCHEDULER_SUSPENDED ) && ( xTicksToWait != 0 ) ) );
 5101f94:	e3063e28 	movw	r3, #28200	; 0x6e28
 5101f98:	e3403510 	movt	r3, #1296	; 0x510
 5101f9c:	e12fff33 	blx	r3
 5101fa0:	e3500000 	cmp	r0, #0
 5101fa4:	1a000002 	bne	5101fb4 <xQueueSemaphoreTake+0x40>
 5101fa8:	e59d3004 	ldr	r3, [sp, #4]
 5101fac:	e3530000 	cmp	r3, #0
 5101fb0:	1a000080 	bne	51021b8 <xQueueSemaphoreTake+0x244>
 5101fb4:	e30c5930 	movw	r5, #51504	; 0xc930
{
 5101fb8:	e3a0a000 	mov	sl, #0
 5101fbc:	e30c6988 	movw	r6, #51592	; 0xc988
 5101fc0:	e3405510 	movt	r5, #1296	; 0x510
        taskENTER_CRITICAL();
 5101fc4:	e12fff35 	blx	r5
            const UBaseType_t uxSemaphoreCount = pxQueue->uxMessagesWaiting;
 5101fc8:	e5943038 	ldr	r3, [r4, #56]	; 0x38
                    vTaskInternalSetTimeOutState( &xTimeOut );
 5101fcc:	e307b1ec 	movw	fp, #29164	; 0x71ec
        vTaskSuspendAll();
 5101fd0:	e30592a0 	movw	r9, #21152	; 0x52a0
        if( xTaskCheckForTimeOut( &xTimeOut, &xTicksToWait ) == pdFALSE )
 5101fd4:	e3058b8c 	movw	r8, #23436	; 0x5b8c
            if( uxSemaphoreCount > ( UBaseType_t ) 0 )
 5101fd8:	e3530000 	cmp	r3, #0
{
 5101fdc:	e1a0700a 	mov	r7, sl
 5101fe0:	e3406510 	movt	r6, #1296	; 0x510
                    vTaskInternalSetTimeOutState( &xTimeOut );
 5101fe4:	e340b510 	movt	fp, #1296	; 0x510
        vTaskSuspendAll();
 5101fe8:	e3409510 	movt	r9, #1296	; 0x510
        if( xTaskCheckForTimeOut( &xTimeOut, &xTicksToWait ) == pdFALSE )
 5101fec:	e3408510 	movt	r8, #1296	; 0x510
            if( uxSemaphoreCount > ( UBaseType_t ) 0 )
 5101ff0:	1a000025 	bne	510208c <xQueueSemaphoreTake+0x118>
                if( xTicksToWait == ( TickType_t ) 0 )
 5101ff4:	e59d3004 	ldr	r3, [sp, #4]
 5101ff8:	e3530000 	cmp	r3, #0
 5101ffc:	0a000083 	beq	5102210 <xQueueSemaphoreTake+0x29c>
                else if( xEntryTimeSet == pdFALSE )
 5102000:	e3570000 	cmp	r7, #0
                    vTaskInternalSetTimeOutState( &xTimeOut );
 5102004:	e28d7008 	add	r7, sp, #8
                else if( xEntryTimeSet == pdFALSE )
 5102008:	0a000037 	beq	51020ec <xQueueSemaphoreTake+0x178>
        taskEXIT_CRITICAL();
 510200c:	e12fff36 	blx	r6
        vTaskSuspendAll();
 5102010:	e12fff39 	blx	r9
        prvLockQueue( pxQueue );
 5102014:	e12fff35 	blx	r5
 5102018:	e5d43044 	ldrb	r3, [r4, #68]	; 0x44
 510201c:	e35300ff 	cmp	r3, #255	; 0xff
 5102020:	03a03000 	moveq	r3, #0
 5102024:	05c43044 	strbeq	r3, [r4, #68]	; 0x44
 5102028:	e5d43045 	ldrb	r3, [r4, #69]	; 0x45
 510202c:	e35300ff 	cmp	r3, #255	; 0xff
 5102030:	03a03000 	moveq	r3, #0
 5102034:	05c43045 	strbeq	r3, [r4, #69]	; 0x45
 5102038:	e12fff36 	blx	r6
        if( xTaskCheckForTimeOut( &xTimeOut, &xTicksToWait ) == pdFALSE )
 510203c:	e1a00007 	mov	r0, r7
 5102040:	e28d1004 	add	r1, sp, #4
 5102044:	e12fff38 	blx	r8
 5102048:	e3500000 	cmp	r0, #0
 510204c:	1a00001b 	bne	51020c0 <xQueueSemaphoreTake+0x14c>
    taskENTER_CRITICAL();
 5102050:	e12fff35 	blx	r5
        if( pxQueue->uxMessagesWaiting == ( UBaseType_t ) 0 )
 5102054:	e5943038 	ldr	r3, [r4, #56]	; 0x38
 5102058:	e3530000 	cmp	r3, #0
 510205c:	0a000025 	beq	51020f8 <xQueueSemaphoreTake+0x184>
    taskEXIT_CRITICAL();
 5102060:	e12fff36 	blx	r6
                prvUnlockQueue( pxQueue );
 5102064:	e1a00004 	mov	r0, r4
 5102068:	ebfffbaa 	bl	5100f18 <prvUnlockQueue>
                ( void ) xTaskResumeAll();
 510206c:	e3053efc 	movw	r3, #24316	; 0x5efc
 5102070:	e3403510 	movt	r3, #1296	; 0x510
 5102074:	e12fff33 	blx	r3
        taskENTER_CRITICAL();
 5102078:	e12fff35 	blx	r5
            const UBaseType_t uxSemaphoreCount = pxQueue->uxMessagesWaiting;
 510207c:	e5943038 	ldr	r3, [r4, #56]	; 0x38
{
 5102080:	e3a07001 	mov	r7, #1
            if( uxSemaphoreCount > ( UBaseType_t ) 0 )
 5102084:	e3530000 	cmp	r3, #0
 5102088:	0affffd9 	beq	5101ff4 <xQueueSemaphoreTake+0x80>
                    if( pxQueue->uxQueueType == queueQUEUE_IS_MUTEX )
 510208c:	e5942000 	ldr	r2, [r4]
                pxQueue->uxMessagesWaiting = ( UBaseType_t ) ( uxSemaphoreCount - ( UBaseType_t ) 1 );
 5102090:	e2433001 	sub	r3, r3, #1
 5102094:	e5843038 	str	r3, [r4, #56]	; 0x38
                    if( pxQueue->uxQueueType == queueQUEUE_IS_MUTEX )
 5102098:	e3520000 	cmp	r2, #0
 510209c:	0a00006c 	beq	5102254 <xQueueSemaphoreTake+0x2e0>
                if( listLIST_IS_EMPTY( &( pxQueue->xTasksWaitingToSend ) ) == pdFALSE )
 51020a0:	e5943010 	ldr	r3, [r4, #16]
 51020a4:	e3530000 	cmp	r3, #0
 51020a8:	1a00005f 	bne	510222c <xQueueSemaphoreTake+0x2b8>
                taskEXIT_CRITICAL();
 51020ac:	e12fff36 	blx	r6
                return pdPASS;
 51020b0:	e3a0a001 	mov	sl, #1
}
 51020b4:	e1a0000a 	mov	r0, sl
 51020b8:	e28dd014 	add	sp, sp, #20
 51020bc:	e8bd8ff0 	pop	{r4, r5, r6, r7, r8, r9, sl, fp, pc}
            prvUnlockQueue( pxQueue );
 51020c0:	e1a00004 	mov	r0, r4
 51020c4:	ebfffb93 	bl	5100f18 <prvUnlockQueue>
            ( void ) xTaskResumeAll();
 51020c8:	e3053efc 	movw	r3, #24316	; 0x5efc
 51020cc:	e3403510 	movt	r3, #1296	; 0x510
 51020d0:	e12fff33 	blx	r3
    taskENTER_CRITICAL();
 51020d4:	e12fff35 	blx	r5
        if( pxQueue->uxMessagesWaiting == ( UBaseType_t ) 0 )
 51020d8:	e5943038 	ldr	r3, [r4, #56]	; 0x38
 51020dc:	e3530000 	cmp	r3, #0
 51020e0:	0a000018 	beq	5102148 <xQueueSemaphoreTake+0x1d4>
    taskEXIT_CRITICAL();
 51020e4:	e12fff36 	blx	r6
    return xReturn;
 51020e8:	eaffffe2 	b	5102078 <xQueueSemaphoreTake+0x104>
                    vTaskInternalSetTimeOutState( &xTimeOut );
 51020ec:	e1a00007 	mov	r0, r7
 51020f0:	e12fff3b 	blx	fp
                    xEntryTimeSet = pdTRUE;
 51020f4:	eaffffc4 	b	510200c <xQueueSemaphoreTake+0x98>
    taskEXIT_CRITICAL();
 51020f8:	e12fff36 	blx	r6
                    if( pxQueue->uxQueueType == queueQUEUE_IS_MUTEX )
 51020fc:	e5943000 	ldr	r3, [r4]
 5102100:	e3530000 	cmp	r3, #0
 5102104:	0a000039 	beq	51021f0 <xQueueSemaphoreTake+0x27c>
                vTaskPlaceOnEventList( &( pxQueue->xTasksWaitingToReceive ), xTicksToWait );
 5102108:	e3063718 	movw	r3, #26392	; 0x6718
 510210c:	e2840024 	add	r0, r4, #36	; 0x24
 5102110:	e59d1004 	ldr	r1, [sp, #4]
 5102114:	e3403510 	movt	r3, #1296	; 0x510
 5102118:	e12fff33 	blx	r3
                prvUnlockQueue( pxQueue );
 510211c:	e1a00004 	mov	r0, r4
 5102120:	ebfffb7c 	bl	5100f18 <prvUnlockQueue>
                if( xTaskResumeAll() == pdFALSE )
 5102124:	e3053efc 	movw	r3, #24316	; 0x5efc
 5102128:	e3403510 	movt	r3, #1296	; 0x510
 510212c:	e12fff33 	blx	r3
 5102130:	e3500000 	cmp	r0, #0
 5102134:	1affffcf 	bne	5102078 <xQueueSemaphoreTake+0x104>
                    taskYIELD_WITHIN_API();
 5102138:	e3003000 	movw	r3, #0
 510213c:	e3403511 	movt	r3, #1297	; 0x511
 5102140:	e12fff33 	blx	r3
 5102144:	eaffffcb 	b	5102078 <xQueueSemaphoreTake+0x104>
    taskEXIT_CRITICAL();
 5102148:	e12fff36 	blx	r6
                    if( xInheritanceOccurred != pdFALSE )
 510214c:	e35a0000 	cmp	sl, #0
 5102150:	1a000009 	bne	510217c <xQueueSemaphoreTake+0x208>
}
 5102154:	e1a0000a 	mov	r0, sl
 5102158:	e28dd014 	add	sp, sp, #20
 510215c:	e8bd8ff0 	pop	{r4, r5, r6, r7, r8, r9, sl, fp, pc}
    configASSERT( pxQueue->uxItemSize == 0 );
 5102160:	e30d0a74 	movw	r0, #55924	; 0xda74
 5102164:	e3003900 	movw	r3, #2304	; 0x900
 5102168:	e3001686 	movw	r1, #1670	; 0x686
 510216c:	e3403511 	movt	r3, #1297	; 0x511
 5102170:	e3400512 	movt	r0, #1298	; 0x512
 5102174:	e12fff33 	blx	r3
 5102178:	eaffff85 	b	5101f94 <xQueueSemaphoreTake+0x20>
                        taskENTER_CRITICAL();
 510217c:	e12fff35 	blx	r5
        if( listCURRENT_LIST_LENGTH( &( pxQueue->xTasksWaitingToReceive ) ) > 0U )
 5102180:	e5941024 	ldr	r1, [r4, #36]	; 0x24
                            vTaskPriorityDisinheritAfterTimeout( pxQueue->u.xSemaphore.xMutexHolder, uxHighestWaitingPriority );
 5102184:	e5940008 	ldr	r0, [r4, #8]
                return errQUEUE_EMPTY;
 5102188:	e3a0a000 	mov	sl, #0
        if( listCURRENT_LIST_LENGTH( &( pxQueue->xTasksWaitingToReceive ) ) > 0U )
 510218c:	e3510000 	cmp	r1, #0
            uxHighestPriorityOfWaitingTasks = ( UBaseType_t ) ( ( UBaseType_t ) configMAX_PRIORITIES - ( UBaseType_t ) listGET_ITEM_VALUE_OF_HEAD_ENTRY( &( pxQueue->xTasksWaitingToReceive ) ) );
 5102190:	15943030 	ldrne	r3, [r4, #48]	; 0x30
 5102194:	15931000 	ldrne	r1, [r3]
                            vTaskPriorityDisinheritAfterTimeout( pxQueue->u.xSemaphore.xMutexHolder, uxHighestWaitingPriority );
 5102198:	e3073094 	movw	r3, #28820	; 0x7094
 510219c:	e3403510 	movt	r3, #1296	; 0x510
            uxHighestPriorityOfWaitingTasks = ( UBaseType_t ) ( ( UBaseType_t ) configMAX_PRIORITIES - ( UBaseType_t ) listGET_ITEM_VALUE_OF_HEAD_ENTRY( &( pxQueue->xTasksWaitingToReceive ) ) );
 51021a0:	12611007 	rsbne	r1, r1, #7
                            vTaskPriorityDisinheritAfterTimeout( pxQueue->u.xSemaphore.xMutexHolder, uxHighestWaitingPriority );
 51021a4:	e12fff33 	blx	r3
                        taskEXIT_CRITICAL();
 51021a8:	e12fff36 	blx	r6
}
 51021ac:	e1a0000a 	mov	r0, sl
 51021b0:	e28dd014 	add	sp, sp, #20
 51021b4:	e8bd8ff0 	pop	{r4, r5, r6, r7, r8, r9, sl, fp, pc}
        configASSERT( !( ( xTaskGetSchedulerState() == taskSCHEDULER_SUSPENDED ) && ( xTicksToWait != 0 ) ) );
 51021b8:	e30d0a74 	movw	r0, #55924	; 0xda74
 51021bc:	e3003900 	movw	r3, #2304	; 0x900
 51021c0:	e300168b 	movw	r1, #1675	; 0x68b
 51021c4:	e3403511 	movt	r3, #1297	; 0x511
 51021c8:	e3400512 	movt	r0, #1298	; 0x512
 51021cc:	e12fff33 	blx	r3
 51021d0:	eaffff77 	b	5101fb4 <xQueueSemaphoreTake+0x40>
    configASSERT( ( pxQueue ) );
 51021d4:	e30d0a74 	movw	r0, #55924	; 0xda74
 51021d8:	e3003900 	movw	r3, #2304	; 0x900
 51021dc:	e3001682 	movw	r1, #1666	; 0x682
 51021e0:	e3403511 	movt	r3, #1297	; 0x511
 51021e4:	e3400512 	movt	r0, #1298	; 0x512
 51021e8:	e12fff33 	blx	r3
 51021ec:	eaffff65 	b	5101f88 <xQueueSemaphoreTake+0x14>
                        taskENTER_CRITICAL();
 51021f0:	e12fff35 	blx	r5
                            xInheritanceOccurred = xTaskPriorityInherit( pxQueue->u.xSemaphore.xMutexHolder );
 51021f4:	e5940008 	ldr	r0, [r4, #8]
 51021f8:	e3063e58 	movw	r3, #28248	; 0x6e58
 51021fc:	e3403510 	movt	r3, #1296	; 0x510
 5102200:	e12fff33 	blx	r3
 5102204:	e1a0a000 	mov	sl, r0
                        taskEXIT_CRITICAL();
 5102208:	e12fff36 	blx	r6
 510220c:	eaffffbd 	b	5102108 <xQueueSemaphoreTake+0x194>
 5102210:	e58d3000 	str	r3, [sp]
                    taskEXIT_CRITICAL();
 5102214:	e12fff36 	blx	r6
                    return errQUEUE_EMPTY;
 5102218:	e59d3000 	ldr	r3, [sp]
 510221c:	e1a0a003 	mov	sl, r3
}
 5102220:	e1a0000a 	mov	r0, sl
 5102224:	e28dd014 	add	sp, sp, #20
 5102228:	e8bd8ff0 	pop	{r4, r5, r6, r7, r8, r9, sl, fp, pc}
                    if( xTaskRemoveFromEventList( &( pxQueue->xTasksWaitingToSend ) ) != pdFALSE )
 510222c:	e30638d0 	movw	r3, #26832	; 0x68d0
 5102230:	e2840010 	add	r0, r4, #16
 5102234:	e3403510 	movt	r3, #1296	; 0x510
 5102238:	e12fff33 	blx	r3
 510223c:	e3500000 	cmp	r0, #0
 5102240:	0affff99 	beq	51020ac <xQueueSemaphoreTake+0x138>
                        queueYIELD_IF_USING_PREEMPTION();
 5102244:	e3003000 	movw	r3, #0
 5102248:	e3403511 	movt	r3, #1297	; 0x511
 510224c:	e12fff33 	blx	r3
 5102250:	eaffff95 	b	51020ac <xQueueSemaphoreTake+0x138>
                        pxQueue->u.xSemaphore.xMutexHolder = pvTaskIncrementMutexHeldCount();
 5102254:	e30731cc 	movw	r3, #29132	; 0x71cc
 5102258:	e3403510 	movt	r3, #1296	; 0x510
 510225c:	e12fff33 	blx	r3
 5102260:	e5840008 	str	r0, [r4, #8]
 5102264:	eaffff8d 	b	51020a0 <xQueueSemaphoreTake+0x12c>

05102268 <xQueueGetMutexHolder>:
    {
 5102268:	e92d4010 	push	{r4, lr}
        configASSERT( xSemaphore );
 510226c:	e2504000 	subs	r4, r0, #0
    {
 5102270:	e24dd008 	sub	sp, sp, #8
        configASSERT( xSemaphore );
 5102274:	0a00000d 	beq	51022b0 <xQueueGetMutexHolder+0x48>
        taskENTER_CRITICAL();
 5102278:	e30c3930 	movw	r3, #51504	; 0xc930
 510227c:	e3403510 	movt	r3, #1296	; 0x510
 5102280:	e12fff33 	blx	r3
            if( pxSemaphore->uxQueueType == queueQUEUE_IS_MUTEX )
 5102284:	e5943000 	ldr	r3, [r4]
 5102288:	e3530000 	cmp	r3, #0
                pxReturn = NULL;
 510228c:	13a00000 	movne	r0, #0
        taskEXIT_CRITICAL();
 5102290:	e30c3988 	movw	r3, #51592	; 0xc988
 5102294:	e3403510 	movt	r3, #1296	; 0x510
                pxReturn = pxSemaphore->u.xSemaphore.xMutexHolder;
 5102298:	05940008 	ldreq	r0, [r4, #8]
 510229c:	e58d0004 	str	r0, [sp, #4]
        taskEXIT_CRITICAL();
 51022a0:	e12fff33 	blx	r3
    }
 51022a4:	e59d0004 	ldr	r0, [sp, #4]
 51022a8:	e28dd008 	add	sp, sp, #8
 51022ac:	e8bd8010 	pop	{r4, pc}
        configASSERT( xSemaphore );
 51022b0:	e30d0a74 	movw	r0, #55924	; 0xda74
 51022b4:	e3003900 	movw	r3, #2304	; 0x900
 51022b8:	e3a01fae 	mov	r1, #696	; 0x2b8
 51022bc:	e3403511 	movt	r3, #1297	; 0x511
 51022c0:	e3400512 	movt	r0, #1298	; 0x512
 51022c4:	e12fff33 	blx	r3
 51022c8:	eaffffea 	b	5102278 <xQueueGetMutexHolder+0x10>

051022cc <xQueueGetMutexHolderFromISR>:
    {
 51022cc:	e92d4010 	push	{r4, lr}
        configASSERT( xSemaphore );
 51022d0:	e2504000 	subs	r4, r0, #0
 51022d4:	0a000004 	beq	51022ec <xQueueGetMutexHolderFromISR+0x20>
        if( ( ( Queue_t * ) xSemaphore )->uxQueueType == queueQUEUE_IS_MUTEX )
 51022d8:	e5943000 	ldr	r3, [r4]
 51022dc:	e3530000 	cmp	r3, #0
            pxReturn = ( ( Queue_t * ) xSemaphore )->u.xSemaphore.xMutexHolder;
 51022e0:	05940008 	ldreq	r0, [r4, #8]
            pxReturn = NULL;
 51022e4:	13a00000 	movne	r0, #0
    }
 51022e8:	e8bd8010 	pop	{r4, pc}
        configASSERT( xSemaphore );
 51022ec:	e30d0a74 	movw	r0, #55924	; 0xda74
 51022f0:	e3003900 	movw	r3, #2304	; 0x900
 51022f4:	e3a01fb7 	mov	r1, #732	; 0x2dc
 51022f8:	e3403511 	movt	r3, #1297	; 0x511
 51022fc:	e3400512 	movt	r0, #1298	; 0x512
 5102300:	e12fff33 	blx	r3
 5102304:	eafffff3 	b	51022d8 <xQueueGetMutexHolderFromISR+0xc>

05102308 <xQueueTakeMutexRecursive>:
    {
 5102308:	e92d4070 	push	{r4, r5, r6, lr}
 510230c:	e1a05001 	mov	r5, r1
        configASSERT( pxMutex );
 5102310:	e2504000 	subs	r4, r0, #0
 5102314:	0a000012 	beq	5102364 <xQueueTakeMutexRecursive+0x5c>
        if( pxMutex->u.xSemaphore.xMutexHolder == xTaskGetCurrentTaskHandle() )
 5102318:	e5946008 	ldr	r6, [r4, #8]
 510231c:	e3063dec 	movw	r3, #28140	; 0x6dec
 5102320:	e3403510 	movt	r3, #1296	; 0x510
 5102324:	e12fff33 	blx	r3
 5102328:	e1560000 	cmp	r6, r0
 510232c:	0a000007 	beq	5102350 <xQueueTakeMutexRecursive+0x48>
            xReturn = xQueueSemaphoreTake( pxMutex, xTicksToWait );
 5102330:	e1a01005 	mov	r1, r5
 5102334:	e1a00004 	mov	r0, r4
 5102338:	ebffff0d 	bl	5101f74 <xQueueSemaphoreTake>
            if( xReturn != pdFAIL )
 510233c:	e3500000 	cmp	r0, #0
                ( pxMutex->u.xSemaphore.uxRecursiveCallCount )++;
 5102340:	1594300c 	ldrne	r3, [r4, #12]
 5102344:	12833001 	addne	r3, r3, #1
 5102348:	1584300c 	strne	r3, [r4, #12]
    }
 510234c:	e8bd8070 	pop	{r4, r5, r6, pc}
            ( pxMutex->u.xSemaphore.uxRecursiveCallCount )++;
 5102350:	e594300c 	ldr	r3, [r4, #12]
            xReturn = pdPASS;
 5102354:	e3a00001 	mov	r0, #1
            ( pxMutex->u.xSemaphore.uxRecursiveCallCount )++;
 5102358:	e0833000 	add	r3, r3, r0
 510235c:	e584300c 	str	r3, [r4, #12]
            xReturn = pdPASS;
 5102360:	e8bd8070 	pop	{r4, r5, r6, pc}
        configASSERT( pxMutex );
 5102364:	e30d0a74 	movw	r0, #55924	; 0xda74
 5102368:	e3003900 	movw	r3, #2304	; 0x900
 510236c:	e3001337 	movw	r1, #823	; 0x337
 5102370:	e3403511 	movt	r3, #1297	; 0x511
 5102374:	e3400512 	movt	r0, #1298	; 0x512
 5102378:	e12fff33 	blx	r3
 510237c:	eaffffe5 	b	5102318 <xQueueTakeMutexRecursive+0x10>

05102380 <xQueueGiveMutexRecursive>:
    {
 5102380:	e92d4070 	push	{r4, r5, r6, lr}
        configASSERT( pxMutex );
 5102384:	e2504000 	subs	r4, r0, #0
 5102388:	0a00000e 	beq	51023c8 <xQueueGiveMutexRecursive+0x48>
        if( pxMutex->u.xSemaphore.xMutexHolder == xTaskGetCurrentTaskHandle() )
 510238c:	e5945008 	ldr	r5, [r4, #8]
 5102390:	e3063dec 	movw	r3, #28140	; 0x6dec
 5102394:	e3403510 	movt	r3, #1296	; 0x510
 5102398:	e12fff33 	blx	r3
 510239c:	e1550000 	cmp	r5, r0
 51023a0:	0a000001 	beq	51023ac <xQueueGiveMutexRecursive+0x2c>
            xReturn = pdFAIL;
 51023a4:	e3a00000 	mov	r0, #0
 51023a8:	e8bd8070 	pop	{r4, r5, r6, pc}
            ( pxMutex->u.xSemaphore.uxRecursiveCallCount )--;
 51023ac:	e594300c 	ldr	r3, [r4, #12]
 51023b0:	e2433001 	sub	r3, r3, #1
            if( pxMutex->u.xSemaphore.uxRecursiveCallCount == ( UBaseType_t ) 0 )
 51023b4:	e3530000 	cmp	r3, #0
            ( pxMutex->u.xSemaphore.uxRecursiveCallCount )--;
 51023b8:	e584300c 	str	r3, [r4, #12]
            if( pxMutex->u.xSemaphore.uxRecursiveCallCount == ( UBaseType_t ) 0 )
 51023bc:	0a000008 	beq	51023e4 <xQueueGiveMutexRecursive+0x64>
            xReturn = pdPASS;
 51023c0:	e3a00001 	mov	r0, #1
    }
 51023c4:	e8bd8070 	pop	{r4, r5, r6, pc}
        configASSERT( pxMutex );
 51023c8:	e30d0a74 	movw	r0, #55924	; 0xda74
 51023cc:	e3003900 	movw	r3, #2304	; 0x900
 51023d0:	e30012fb 	movw	r1, #763	; 0x2fb
 51023d4:	e3403511 	movt	r3, #1297	; 0x511
 51023d8:	e3400512 	movt	r0, #1298	; 0x512
 51023dc:	e12fff33 	blx	r3
 51023e0:	eaffffe9 	b	510238c <xQueueGiveMutexRecursive+0xc>
                ( void ) xQueueGenericSend( pxMutex, NULL, queueMUTEX_GIVE_BLOCK_TIME, queueSEND_TO_BACK );
 51023e4:	e1a02003 	mov	r2, r3
 51023e8:	e1a01003 	mov	r1, r3
 51023ec:	e1a00004 	mov	r0, r4
 51023f0:	ebfffb0e 	bl	5101030 <xQueueGenericSend>
            xReturn = pdPASS;
 51023f4:	e3a00001 	mov	r0, #1
 51023f8:	e8bd8070 	pop	{r4, r5, r6, pc}

051023fc <vQueueAddToRegistry>:
    {
 51023fc:	e92d4070 	push	{r4, r5, r6, lr}
 5102400:	e1a05001 	mov	r5, r1
        configASSERT( xQueue );
 5102404:	e2504000 	subs	r4, r0, #0
 5102408:	0a000021 	beq	5102494 <vQueueAddToRegistry+0x98>
        if( pcQueueName != NULL )
 510240c:	e3550000 	cmp	r5, #0
 5102410:	08bd8070 	popeq	{r4, r5, r6, pc}
        QueueRegistryItem_t * pxEntryToWrite = NULL;
 5102414:	e3a0c000 	mov	ip, #0
 5102418:	e30c0d78 	movw	r0, #52600	; 0xcd78
            for( ux = ( UBaseType_t ) 0U; ux < ( UBaseType_t ) configQUEUE_REGISTRY_SIZE; ux++ )
 510241c:	e1a0300c 	mov	r3, ip
 5102420:	e3400511 	movt	r0, #1297	; 0x511
                if( xQueue == xQueueRegistry[ ux ].xHandle )
 5102424:	e0802183 	add	r2, r0, r3, lsl #3
 5102428:	e1a0e183 	lsl	lr, r3, #3
 510242c:	e5922004 	ldr	r2, [r2, #4]
 5102430:	e1520004 	cmp	r2, r4
 5102434:	0a000012 	beq	5102484 <vQueueAddToRegistry+0x88>
                else if( ( pxEntryToWrite == NULL ) && ( xQueueRegistry[ ux ].pcQueueName == NULL ) )
 5102438:	e35c0000 	cmp	ip, #0
 510243c:	0a000005 	beq	5102458 <vQueueAddToRegistry+0x5c>
            for( ux = ( UBaseType_t ) 0U; ux < ( UBaseType_t ) configQUEUE_REGISTRY_SIZE; ux++ )
 5102440:	e2833001 	add	r3, r3, #1
 5102444:	e3530008 	cmp	r3, #8
 5102448:	1afffff5 	bne	5102424 <vQueueAddToRegistry+0x28>
            pxEntryToWrite->pcQueueName = pcQueueName;
 510244c:	e58c5000 	str	r5, [ip]
            pxEntryToWrite->xHandle = xQueue;
 5102450:	e58c4004 	str	r4, [ip, #4]
    }
 5102454:	e8bd8070 	pop	{r4, r5, r6, pc}
                else if( ( pxEntryToWrite == NULL ) && ( xQueueRegistry[ ux ].pcQueueName == NULL ) )
 5102458:	e7902183 	ldr	r2, [r0, r3, lsl #3]
 510245c:	e3520000 	cmp	r2, #0
 5102460:	0a000009 	beq	510248c <vQueueAddToRegistry+0x90>
            for( ux = ( UBaseType_t ) 0U; ux < ( UBaseType_t ) configQUEUE_REGISTRY_SIZE; ux++ )
 5102464:	e2833001 	add	r3, r3, #1
 5102468:	e3530008 	cmp	r3, #8
                if( xQueue == xQueueRegistry[ ux ].xHandle )
 510246c:	e0802183 	add	r2, r0, r3, lsl #3
 5102470:	e1a0e183 	lsl	lr, r3, #3
            for( ux = ( UBaseType_t ) 0U; ux < ( UBaseType_t ) configQUEUE_REGISTRY_SIZE; ux++ )
 5102474:	08bd8070 	popeq	{r4, r5, r6, pc}
                if( xQueue == xQueueRegistry[ ux ].xHandle )
 5102478:	e5922004 	ldr	r2, [r2, #4]
 510247c:	e1540002 	cmp	r4, r2
 5102480:	1afffff4 	bne	5102458 <vQueueAddToRegistry+0x5c>
                    pxEntryToWrite = &( xQueueRegistry[ ux ] );
 5102484:	e080c00e 	add	ip, r0, lr
        if( pxEntryToWrite != NULL )
 5102488:	eaffffef 	b	510244c <vQueueAddToRegistry+0x50>
                    pxEntryToWrite = &( xQueueRegistry[ ux ] );
 510248c:	e080c00e 	add	ip, r0, lr
 5102490:	eaffffea 	b	5102440 <vQueueAddToRegistry+0x44>
        configASSERT( xQueue );
 5102494:	e30d0a74 	movw	r0, #55924	; 0xda74
 5102498:	e3003900 	movw	r3, #2304	; 0x900
 510249c:	e3001bc9 	movw	r1, #3017	; 0xbc9
 51024a0:	e3400512 	movt	r0, #1298	; 0x512
 51024a4:	e3403511 	movt	r3, #1297	; 0x511
 51024a8:	e12fff33 	blx	r3
        if( pcQueueName != NULL )
 51024ac:	e3550000 	cmp	r5, #0
 51024b0:	1affffd7 	bne	5102414 <vQueueAddToRegistry+0x18>
 51024b4:	e8bd8070 	pop	{r4, r5, r6, pc}

051024b8 <vQueueUnregisterQueue>:
    {
 51024b8:	e92d4010 	push	{r4, lr}
        configASSERT( xQueue );
 51024bc:	e2504000 	subs	r4, r0, #0
 51024c0:	0a00000e 	beq	5102500 <vQueueUnregisterQueue+0x48>
        for( ux = ( UBaseType_t ) 0U; ux < ( UBaseType_t ) configQUEUE_REGISTRY_SIZE; ux++ )
 51024c4:	e30c0d78 	movw	r0, #52600	; 0xcd78
 51024c8:	e3a03000 	mov	r3, #0
 51024cc:	e3400511 	movt	r0, #1297	; 0x511
 51024d0:	ea000002 	b	51024e0 <vQueueUnregisterQueue+0x28>
 51024d4:	e2833001 	add	r3, r3, #1
 51024d8:	e3530008 	cmp	r3, #8
 51024dc:	08bd8010 	popeq	{r4, pc}
            if( xQueueRegistry[ ux ].xHandle == xQueue )
 51024e0:	e0802183 	add	r2, r0, r3, lsl #3
 51024e4:	e5921004 	ldr	r1, [r2, #4]
 51024e8:	e1510004 	cmp	r1, r4
 51024ec:	1afffff8 	bne	51024d4 <vQueueUnregisterQueue+0x1c>
                xQueueRegistry[ ux ].pcQueueName = NULL;
 51024f0:	e3a01000 	mov	r1, #0
 51024f4:	e7801183 	str	r1, [r0, r3, lsl #3]
                xQueueRegistry[ ux ].xHandle = ( QueueHandle_t ) 0;
 51024f8:	e5821004 	str	r1, [r2, #4]
                break;
 51024fc:	e8bd8010 	pop	{r4, pc}
        configASSERT( xQueue );
 5102500:	e30d0a74 	movw	r0, #55924	; 0xda74
 5102504:	e3003900 	movw	r3, #2304	; 0x900
 5102508:	e3001c1d 	movw	r1, #3101	; 0xc1d
 510250c:	e3403511 	movt	r3, #1297	; 0x511
 5102510:	e3400512 	movt	r0, #1298	; 0x512
 5102514:	e12fff33 	blx	r3
 5102518:	eaffffe9 	b	51024c4 <vQueueUnregisterQueue+0xc>

0510251c <pcQueueGetName>:
    {
 510251c:	e92d4010 	push	{r4, lr}
        configASSERT( xQueue );
 5102520:	e2504000 	subs	r4, r0, #0
 5102524:	0a00000d 	beq	5102560 <pcQueueGetName+0x44>
        for( ux = ( UBaseType_t ) 0U; ux < ( UBaseType_t ) configQUEUE_REGISTRY_SIZE; ux++ )
 5102528:	e30c1d78 	movw	r1, #52600	; 0xcd78
 510252c:	e3a03000 	mov	r3, #0
 5102530:	e3401511 	movt	r1, #1297	; 0x511
            if( xQueueRegistry[ ux ].xHandle == xQueue )
 5102534:	e0812183 	add	r2, r1, r3, lsl #3
 5102538:	e5922004 	ldr	r2, [r2, #4]
 510253c:	e1520004 	cmp	r2, r4
 5102540:	0a000004 	beq	5102558 <pcQueueGetName+0x3c>
        for( ux = ( UBaseType_t ) 0U; ux < ( UBaseType_t ) configQUEUE_REGISTRY_SIZE; ux++ )
 5102544:	e2833001 	add	r3, r3, #1
 5102548:	e3530008 	cmp	r3, #8
 510254c:	1afffff8 	bne	5102534 <pcQueueGetName+0x18>
        const char * pcReturn = NULL;
 5102550:	e3a00000 	mov	r0, #0
    }
 5102554:	e8bd8010 	pop	{r4, pc}
                pcReturn = xQueueRegistry[ ux ].pcQueueName;
 5102558:	e7910183 	ldr	r0, [r1, r3, lsl #3]
                break;
 510255c:	e8bd8010 	pop	{r4, pc}
        configASSERT( xQueue );
 5102560:	e30d0a74 	movw	r0, #55924	; 0xda74
 5102564:	e3003900 	movw	r3, #2304	; 0x900
 5102568:	e3001bfb 	movw	r1, #3067	; 0xbfb
 510256c:	e3403511 	movt	r3, #1297	; 0x511
 5102570:	e3400512 	movt	r0, #1298	; 0x512
 5102574:	e12fff33 	blx	r3
 5102578:	eaffffea 	b	5102528 <pcQueueGetName+0xc>

0510257c <xQueueGenericGetStaticBuffers>:
    {
 510257c:	e92d4070 	push	{r4, r5, r6, lr}
 5102580:	e1a05001 	mov	r5, r1
        configASSERT( pxQueue );
 5102584:	e2506000 	subs	r6, r0, #0
    {
 5102588:	e1a04002 	mov	r4, r2
        configASSERT( pxQueue );
 510258c:	0a000013 	beq	51025e0 <xQueueGenericGetStaticBuffers+0x64>
        configASSERT( ppxStaticQueue );
 5102590:	e3540000 	cmp	r4, #0
 5102594:	0a00000a 	beq	51025c4 <xQueueGenericGetStaticBuffers+0x48>
            if( pxQueue->ucStaticallyAllocated == ( uint8_t ) pdTRUE )
 5102598:	e5d63046 	ldrb	r3, [r6, #70]	; 0x46
 510259c:	e3530001 	cmp	r3, #1
 51025a0:	0a000001 	beq	51025ac <xQueueGenericGetStaticBuffers+0x30>
                xReturn = pdFALSE;
 51025a4:	e3a00000 	mov	r0, #0
    }
 51025a8:	e8bd8070 	pop	{r4, r5, r6, pc}
                xReturn = pdTRUE;
 51025ac:	e3a00001 	mov	r0, #1
                if( ppucQueueStorage != NULL )
 51025b0:	e3550000 	cmp	r5, #0
                    *ppucQueueStorage = ( uint8_t * ) pxQueue->pcHead;
 51025b4:	15963000 	ldrne	r3, [r6]
 51025b8:	15853000 	strne	r3, [r5]
                *ppxStaticQueue = ( StaticQueue_t * ) pxQueue;
 51025bc:	e5846000 	str	r6, [r4]
                xReturn = pdTRUE;
 51025c0:	e8bd8070 	pop	{r4, r5, r6, pc}
        configASSERT( ppxStaticQueue );
 51025c4:	e30d0a74 	movw	r0, #55924	; 0xda74
 51025c8:	e3003900 	movw	r3, #2304	; 0x900
 51025cc:	e3a01f72 	mov	r1, #456	; 0x1c8
 51025d0:	e3403511 	movt	r3, #1297	; 0x511
 51025d4:	e3400512 	movt	r0, #1298	; 0x512
 51025d8:	e12fff33 	blx	r3
 51025dc:	eaffffed 	b	5102598 <xQueueGenericGetStaticBuffers+0x1c>
        configASSERT( pxQueue );
 51025e0:	e30d0a74 	movw	r0, #55924	; 0xda74
 51025e4:	e3003900 	movw	r3, #2304	; 0x900
 51025e8:	e30011c7 	movw	r1, #455	; 0x1c7
 51025ec:	e3403511 	movt	r3, #1297	; 0x511
 51025f0:	e3400512 	movt	r0, #1298	; 0x512
 51025f4:	e12fff33 	blx	r3
 51025f8:	eaffffe4 	b	5102590 <xQueueGenericGetStaticBuffers+0x14>

051025fc <xQueueAddToSet>:
    {
 51025fc:	e92d4030 	push	{r4, r5, lr}
 5102600:	e1a04000 	mov	r4, r0
        taskENTER_CRITICAL();
 5102604:	e30c3930 	movw	r3, #51504	; 0xc930
    {
 5102608:	e24dd00c 	sub	sp, sp, #12
 510260c:	e1a05001 	mov	r5, r1
        taskENTER_CRITICAL();
 5102610:	e3403510 	movt	r3, #1296	; 0x510
 5102614:	e12fff33 	blx	r3
            if( ( ( Queue_t * ) xQueueOrSemaphore )->pxQueueSetContainer != NULL )
 5102618:	e5940048 	ldr	r0, [r4, #72]	; 0x48
 510261c:	e3500000 	cmp	r0, #0
                xReturn = pdFAIL;
 5102620:	13a00000 	movne	r0, #0
            if( ( ( Queue_t * ) xQueueOrSemaphore )->pxQueueSetContainer != NULL )
 5102624:	0a000006 	beq	5102644 <xQueueAddToSet+0x48>
 5102628:	e58d0004 	str	r0, [sp, #4]
        taskEXIT_CRITICAL();
 510262c:	e30c3988 	movw	r3, #51592	; 0xc988
 5102630:	e3403510 	movt	r3, #1296	; 0x510
 5102634:	e12fff33 	blx	r3
    }
 5102638:	e59d0004 	ldr	r0, [sp, #4]
 510263c:	e28dd00c 	add	sp, sp, #12
 5102640:	e8bd8030 	pop	{r4, r5, pc}
            else if( ( ( Queue_t * ) xQueueOrSemaphore )->uxMessagesWaiting != ( UBaseType_t ) 0 )
 5102644:	e5943038 	ldr	r3, [r4, #56]	; 0x38
 5102648:	e3530000 	cmp	r3, #0
                xReturn = pdPASS;
 510264c:	03a00001 	moveq	r0, #1
                ( ( Queue_t * ) xQueueOrSemaphore )->pxQueueSetContainer = xQueueSet;
 5102650:	05845048 	streq	r5, [r4, #72]	; 0x48
                xReturn = pdPASS;
 5102654:	eafffff3 	b	5102628 <xQueueAddToSet+0x2c>

05102658 <xQueueRemoveFromSet>:
        if( pxQueueOrSemaphore->pxQueueSetContainer != xQueueSet )
 5102658:	e5903048 	ldr	r3, [r0, #72]	; 0x48
 510265c:	e1530001 	cmp	r3, r1
 5102660:	0a000001 	beq	510266c <xQueueRemoveFromSet+0x14>
            xReturn = pdFAIL;
 5102664:	e3a00000 	mov	r0, #0
    }
 5102668:	e12fff1e 	bx	lr
    {
 510266c:	e92d4010 	push	{r4, lr}
        else if( pxQueueOrSemaphore->uxMessagesWaiting != ( UBaseType_t ) 0 )
 5102670:	e5904038 	ldr	r4, [r0, #56]	; 0x38
    {
 5102674:	e24dd008 	sub	sp, sp, #8
        else if( pxQueueOrSemaphore->uxMessagesWaiting != ( UBaseType_t ) 0 )
 5102678:	e3540000 	cmp	r4, #0
            xReturn = pdFAIL;
 510267c:	13a00000 	movne	r0, #0
        else if( pxQueueOrSemaphore->uxMessagesWaiting != ( UBaseType_t ) 0 )
 5102680:	0a000001 	beq	510268c <xQueueRemoveFromSet+0x34>
    }
 5102684:	e28dd008 	add	sp, sp, #8
 5102688:	e8bd8010 	pop	{r4, pc}
 510268c:	e58d0004 	str	r0, [sp, #4]
            taskENTER_CRITICAL();
 5102690:	e30c3930 	movw	r3, #51504	; 0xc930
 5102694:	e3403510 	movt	r3, #1296	; 0x510
 5102698:	e12fff33 	blx	r3
                pxQueueOrSemaphore->pxQueueSetContainer = NULL;
 510269c:	e59d0004 	ldr	r0, [sp, #4]
 51026a0:	e5804048 	str	r4, [r0, #72]	; 0x48
            taskEXIT_CRITICAL();
 51026a4:	e30c3988 	movw	r3, #51592	; 0xc988
 51026a8:	e3403510 	movt	r3, #1296	; 0x510
 51026ac:	e12fff33 	blx	r3
            xReturn = pdPASS;
 51026b0:	e3a00001 	mov	r0, #1
 51026b4:	eafffff2 	b	5102684 <xQueueRemoveFromSet+0x2c>

051026b8 <xQueueSelectFromSet>:
    {
 51026b8:	e52de004 	push	{lr}		; (str lr, [sp, #-4]!)
        QueueSetMemberHandle_t xReturn = NULL;
 51026bc:	e3a03000 	mov	r3, #0
    {
 51026c0:	e24dd00c 	sub	sp, sp, #12
 51026c4:	e1a02001 	mov	r2, r1
        ( void ) xQueueReceive( ( QueueHandle_t ) xQueueSet, &xReturn, xTicksToWait );
 51026c8:	e28d1004 	add	r1, sp, #4
        QueueSetMemberHandle_t xReturn = NULL;
 51026cc:	e58d3004 	str	r3, [sp, #4]
        ( void ) xQueueReceive( ( QueueHandle_t ) xQueueSet, &xReturn, xTicksToWait );
 51026d0:	ebfffbe7 	bl	5101674 <xQueueReceive>
    }
 51026d4:	e59d0004 	ldr	r0, [sp, #4]
 51026d8:	e28dd00c 	add	sp, sp, #12
 51026dc:	e49df004 	pop	{pc}		; (ldr pc, [sp], #4)

051026e0 <xQueueSelectFromSetFromISR>:
    {
 51026e0:	e52de004 	push	{lr}		; (str lr, [sp, #-4]!)
        QueueSetMemberHandle_t xReturn = NULL;
 51026e4:	e3a02000 	mov	r2, #0
    {
 51026e8:	e24dd00c 	sub	sp, sp, #12
        ( void ) xQueueReceiveFromISR( ( QueueHandle_t ) xQueueSet, &xReturn, NULL );
 51026ec:	e28d1004 	add	r1, sp, #4
        QueueSetMemberHandle_t xReturn = NULL;
 51026f0:	e58d2004 	str	r2, [sp, #4]
        ( void ) xQueueReceiveFromISR( ( QueueHandle_t ) xQueueSet, &xReturn, NULL );
 51026f4:	ebfffd96 	bl	5101d54 <xQueueReceiveFromISR>
    }
 51026f8:	e59d0004 	ldr	r0, [sp, #4]
 51026fc:	e28dd00c 	add	sp, sp, #12
 5102700:	e49df004 	pop	{pc}		; (ldr pc, [sp], #4)

05102704 <vQueueWaitForMessageRestricted>:
        prvLockQueue( pxQueue );
 5102704:	e30c3930 	movw	r3, #51504	; 0xc930
    {
 5102708:	e92d4070 	push	{r4, r5, r6, lr}
 510270c:	e1a04000 	mov	r4, r0
        prvLockQueue( pxQueue );
 5102710:	e3403510 	movt	r3, #1296	; 0x510
    {
 5102714:	e1a05001 	mov	r5, r1
 5102718:	e1a06002 	mov	r6, r2
        prvLockQueue( pxQueue );
 510271c:	e12fff33 	blx	r3
 5102720:	e5d43044 	ldrb	r3, [r4, #68]	; 0x44
 5102724:	e35300ff 	cmp	r3, #255	; 0xff
 5102728:	03a03000 	moveq	r3, #0
 510272c:	05c43044 	strbeq	r3, [r4, #68]	; 0x44
 5102730:	e5d43045 	ldrb	r3, [r4, #69]	; 0x45
 5102734:	e35300ff 	cmp	r3, #255	; 0xff
 5102738:	03a03000 	moveq	r3, #0
 510273c:	05c43045 	strbeq	r3, [r4, #69]	; 0x45
 5102740:	e30c3988 	movw	r3, #51592	; 0xc988
 5102744:	e3403510 	movt	r3, #1296	; 0x510
 5102748:	e12fff33 	blx	r3
        if( pxQueue->uxMessagesWaiting == ( UBaseType_t ) 0U )
 510274c:	e5943038 	ldr	r3, [r4, #56]	; 0x38
 5102750:	e3530000 	cmp	r3, #0
 5102754:	0a000002 	beq	5102764 <vQueueWaitForMessageRestricted+0x60>
        prvUnlockQueue( pxQueue );
 5102758:	e1a00004 	mov	r0, r4
 510275c:	ebfff9ed 	bl	5100f18 <prvUnlockQueue>
    }
 5102760:	e8bd8070 	pop	{r4, r5, r6, pc}
            vTaskPlaceOnEventListRestricted( &( pxQueue->xTasksWaitingToReceive ), xTicksToWait, xWaitIndefinitely );
 5102764:	e3063838 	movw	r3, #26680	; 0x6838
 5102768:	e1a02006 	mov	r2, r6
 510276c:	e1a01005 	mov	r1, r5
 5102770:	e2840024 	add	r0, r4, #36	; 0x24
 5102774:	e3403510 	movt	r3, #1296	; 0x510
 5102778:	e12fff33 	blx	r3
 510277c:	eafffff5 	b	5102758 <vQueueWaitForMessageRestricted+0x54>

05102780 <xQueueGenericReset>:
{
 5102780:	e92d4070 	push	{r4, r5, r6, lr}
    configASSERT( pxQueue );
 5102784:	e2504000 	subs	r4, r0, #0
 5102788:	0a00002a 	beq	5102838 <xQueueGenericReset+0xb8>
        ( pxQueue->uxLength >= 1U ) &&
 510278c:	e594303c 	ldr	r3, [r4, #60]	; 0x3c
    if( ( pxQueue != NULL ) &&
 5102790:	e3530000 	cmp	r3, #0
 5102794:	0a00001f 	beq	5102818 <xQueueGenericReset+0x98>
        ( ( SIZE_MAX / pxQueue->uxLength ) >= pxQueue->uxItemSize ) )
 5102798:	e5946040 	ldr	r6, [r4, #64]	; 0x40
 510279c:	e0863396 	umull	r3, r6, r6, r3
 51027a0:	e3560000 	cmp	r6, #0
 51027a4:	1a00001b 	bne	5102818 <xQueueGenericReset+0x98>
        taskENTER_CRITICAL();
 51027a8:	e30c3930 	movw	r3, #51504	; 0xc930
 51027ac:	e1a05001 	mov	r5, r1
 51027b0:	e3403510 	movt	r3, #1296	; 0x510
 51027b4:	e12fff33 	blx	r3
            pxQueue->u.xQueue.pcTail = pxQueue->pcHead + ( pxQueue->uxLength * pxQueue->uxItemSize );
 51027b8:	e5941040 	ldr	r1, [r4, #64]	; 0x40
 51027bc:	e594303c 	ldr	r3, [r4, #60]	; 0x3c
            pxQueue->cRxLock = queueUNLOCKED;
 51027c0:	e3e00000 	mvn	r0, #0
            pxQueue->u.xQueue.pcTail = pxQueue->pcHead + ( pxQueue->uxLength * pxQueue->uxItemSize );
 51027c4:	e5942000 	ldr	r2, [r4]
            if( xNewQueue == pdFALSE )
 51027c8:	e3550000 	cmp	r5, #0
            pxQueue->pcWriteTo = pxQueue->pcHead;
 51027cc:	e5842004 	str	r2, [r4, #4]
            pxQueue->u.xQueue.pcTail = pxQueue->pcHead + ( pxQueue->uxLength * pxQueue->uxItemSize );
 51027d0:	e0030193 	mul	r3, r3, r1
            pxQueue->uxMessagesWaiting = ( UBaseType_t ) 0U;
 51027d4:	e5846038 	str	r6, [r4, #56]	; 0x38
            pxQueue->cRxLock = queueUNLOCKED;
 51027d8:	e5c40044 	strb	r0, [r4, #68]	; 0x44
            pxQueue->u.xQueue.pcReadFrom = pxQueue->pcHead + ( ( pxQueue->uxLength - 1U ) * pxQueue->uxItemSize );
 51027dc:	e0431001 	sub	r1, r3, r1
            pxQueue->cTxLock = queueUNLOCKED;
 51027e0:	e5c40045 	strb	r0, [r4, #69]	; 0x45
            pxQueue->u.xQueue.pcTail = pxQueue->pcHead + ( pxQueue->uxLength * pxQueue->uxItemSize );
 51027e4:	e0823003 	add	r3, r2, r3
            pxQueue->u.xQueue.pcReadFrom = pxQueue->pcHead + ( ( pxQueue->uxLength - 1U ) * pxQueue->uxItemSize );
 51027e8:	e0822001 	add	r2, r2, r1
            pxQueue->u.xQueue.pcTail = pxQueue->pcHead + ( pxQueue->uxLength * pxQueue->uxItemSize );
 51027ec:	e5843008 	str	r3, [r4, #8]
            pxQueue->u.xQueue.pcReadFrom = pxQueue->pcHead + ( ( pxQueue->uxLength - 1U ) * pxQueue->uxItemSize );
 51027f0:	e584200c 	str	r2, [r4, #12]
            if( xNewQueue == pdFALSE )
 51027f4:	1a000020 	bne	510287c <xQueueGenericReset+0xfc>
                if( listLIST_IS_EMPTY( &( pxQueue->xTasksWaitingToSend ) ) == pdFALSE )
 51027f8:	e5943010 	ldr	r3, [r4, #16]
 51027fc:	e3530000 	cmp	r3, #0
 5102800:	1a000013 	bne	5102854 <xQueueGenericReset+0xd4>
        taskEXIT_CRITICAL();
 5102804:	e30c3988 	movw	r3, #51592	; 0xc988
 5102808:	e3403510 	movt	r3, #1296	; 0x510
 510280c:	e12fff33 	blx	r3
    BaseType_t xReturn = pdPASS;
 5102810:	e3a00001 	mov	r0, #1
 5102814:	e8bd8070 	pop	{r4, r5, r6, pc}
 5102818:	e3004900 	movw	r4, #2304	; 0x900
 510281c:	e3404511 	movt	r4, #1297	; 0x511
    configASSERT( xReturn != pdFAIL );
 5102820:	e30d0a74 	movw	r0, #55924	; 0xda74
 5102824:	e3a01f5b 	mov	r1, #364	; 0x16c
 5102828:	e3400512 	movt	r0, #1298	; 0x512
 510282c:	e12fff34 	blx	r4
 5102830:	e3a00000 	mov	r0, #0
}
 5102834:	e8bd8070 	pop	{r4, r5, r6, pc}
    configASSERT( pxQueue );
 5102838:	e30d0a74 	movw	r0, #55924	; 0xda74
 510283c:	e3004900 	movw	r4, #2304	; 0x900
 5102840:	e3001137 	movw	r1, #311	; 0x137
 5102844:	e3404511 	movt	r4, #1297	; 0x511
 5102848:	e3400512 	movt	r0, #1298	; 0x512
 510284c:	e12fff34 	blx	r4
    if( ( pxQueue != NULL ) &&
 5102850:	eafffff2 	b	5102820 <xQueueGenericReset+0xa0>
                    if( xTaskRemoveFromEventList( &( pxQueue->xTasksWaitingToSend ) ) != pdFALSE )
 5102854:	e30638d0 	movw	r3, #26832	; 0x68d0
 5102858:	e2840010 	add	r0, r4, #16
 510285c:	e3403510 	movt	r3, #1296	; 0x510
 5102860:	e12fff33 	blx	r3
 5102864:	e3500000 	cmp	r0, #0
 5102868:	0affffe5 	beq	5102804 <xQueueGenericReset+0x84>
                        queueYIELD_IF_USING_PREEMPTION();
 510286c:	e3003000 	movw	r3, #0
 5102870:	e3403511 	movt	r3, #1297	; 0x511
 5102874:	e12fff33 	blx	r3
 5102878:	eaffffe1 	b	5102804 <xQueueGenericReset+0x84>
                vListInitialise( &( pxQueue->xTasksWaitingToSend ) );
 510287c:	e3005c28 	movw	r5, #3112	; 0xc28
 5102880:	e2840010 	add	r0, r4, #16
 5102884:	e3405510 	movt	r5, #1296	; 0x510
 5102888:	e12fff35 	blx	r5
                vListInitialise( &( pxQueue->xTasksWaitingToReceive ) );
 510288c:	e2840024 	add	r0, r4, #36	; 0x24
 5102890:	e12fff35 	blx	r5
 5102894:	eaffffda 	b	5102804 <xQueueGenericReset+0x84>

05102898 <xQueueGenericCreate>:
    {
 5102898:	e92d41f0 	push	{r4, r5, r6, r7, r8, lr}
        if( ( uxQueueLength > ( UBaseType_t ) 0 ) &&
 510289c:	e2504000 	subs	r4, r0, #0
 51028a0:	0a00001a 	beq	5102910 <xQueueGenericCreate+0x78>
            ( ( SIZE_MAX / uxQueueLength ) >= uxItemSize ) &&
 51028a4:	e0873194 	umull	r3, r7, r4, r1
 51028a8:	e1a05001 	mov	r5, r1
 51028ac:	e3570000 	cmp	r7, #0
 51028b0:	1a000016 	bne	5102910 <xQueueGenericCreate+0x78>
            ( ( UBaseType_t ) ( SIZE_MAX - sizeof( Queue_t ) ) >= ( uxQueueLength * uxItemSize ) ) )
 51028b4:	e0000491 	mul	r0, r1, r4
            ( ( SIZE_MAX / uxQueueLength ) >= uxItemSize ) &&
 51028b8:	e370004d 	cmn	r0, #77	; 0x4d
 51028bc:	8a000013 	bhi	5102910 <xQueueGenericCreate+0x78>
            pxNewQueue = ( Queue_t * ) pvPortMalloc( sizeof( Queue_t ) + xQueueSizeInBytes );
 51028c0:	e3073f74 	movw	r3, #32628	; 0x7f74
 51028c4:	e280004c 	add	r0, r0, #76	; 0x4c
 51028c8:	e3403510 	movt	r3, #1296	; 0x510
 51028cc:	e12fff33 	blx	r3
            if( pxNewQueue != NULL )
 51028d0:	e2506000 	subs	r6, r0, #0
 51028d4:	0a000014 	beq	510292c <xQueueGenericCreate+0x94>
    ( void ) xQueueGenericReset( pxNewQueue, pdTRUE );
 51028d8:	e3a01001 	mov	r1, #1
    if( uxItemSize == ( UBaseType_t ) 0 )
 51028dc:	e3550000 	cmp	r5, #0
 51028e0:	01a03006 	moveq	r3, r6
                pucQueueStorage += sizeof( Queue_t );
 51028e4:	1286304c 	addne	r3, r6, #76	; 0x4c
                    pxNewQueue->ucStaticallyAllocated = pdFALSE;
 51028e8:	e5c67046 	strb	r7, [r6, #70]	; 0x46
    ( void ) xQueueGenericReset( pxNewQueue, pdTRUE );
 51028ec:	e1a00006 	mov	r0, r6
 51028f0:	e5863000 	str	r3, [r6]
    pxNewQueue->uxLength = uxQueueLength;
 51028f4:	e586403c 	str	r4, [r6, #60]	; 0x3c
    pxNewQueue->uxItemSize = uxItemSize;
 51028f8:	e5865040 	str	r5, [r6, #64]	; 0x40
    ( void ) xQueueGenericReset( pxNewQueue, pdTRUE );
 51028fc:	ebffff9f 	bl	5102780 <xQueueGenericReset>
        pxNewQueue->pxQueueSetContainer = NULL;
 5102900:	e3a03000 	mov	r3, #0
    }
 5102904:	e1a00006 	mov	r0, r6
        pxNewQueue->pxQueueSetContainer = NULL;
 5102908:	e5863048 	str	r3, [r6, #72]	; 0x48
    }
 510290c:	e8bd81f0 	pop	{r4, r5, r6, r7, r8, pc}
            configASSERT( pxNewQueue );
 5102910:	e30d0a74 	movw	r0, #55924	; 0xda74
 5102914:	e3003900 	movw	r3, #2304	; 0x900
 5102918:	e300122a 	movw	r1, #554	; 0x22a
 510291c:	e3400512 	movt	r0, #1298	; 0x512
        Queue_t * pxNewQueue = NULL;
 5102920:	e3a06000 	mov	r6, #0
            configASSERT( pxNewQueue );
 5102924:	e3403511 	movt	r3, #1297	; 0x511
 5102928:	e12fff33 	blx	r3
    }
 510292c:	e1a00006 	mov	r0, r6
 5102930:	e8bd81f0 	pop	{r4, r5, r6, r7, r8, pc}

05102934 <xQueueCreateCountingSemaphore>:
    {
 5102934:	e92d4070 	push	{r4, r5, r6, lr}
        if( ( uxMaxCount != 0U ) &&
 5102938:	e2504000 	subs	r4, r0, #0
 510293c:	13a04001 	movne	r4, #1
 5102940:	e1500001 	cmp	r0, r1
 5102944:	33a04000 	movcc	r4, #0
 5102948:	e3540000 	cmp	r4, #0
 510294c:	0a000006 	beq	510296c <xQueueCreateCountingSemaphore+0x38>
            xHandle = xQueueGenericCreate( uxMaxCount, queueSEMAPHORE_QUEUE_ITEM_LENGTH, queueQUEUE_TYPE_COUNTING_SEMAPHORE );
 5102950:	e1a05001 	mov	r5, r1
 5102954:	e3a02002 	mov	r2, #2
 5102958:	e3a01000 	mov	r1, #0
 510295c:	ebffffcd 	bl	5102898 <xQueueGenericCreate>
            if( xHandle != NULL )
 5102960:	e3500000 	cmp	r0, #0
                ( ( Queue_t * ) xHandle )->uxMessagesWaiting = uxInitialCount;
 5102964:	15805038 	strne	r5, [r0, #56]	; 0x38
                traceCREATE_COUNTING_SEMAPHORE();
 5102968:	e8bd8070 	pop	{r4, r5, r6, pc}
            configASSERT( xHandle );
 510296c:	e30d0a74 	movw	r0, #55924	; 0xda74
 5102970:	e3003900 	movw	r3, #2304	; 0x900
 5102974:	e300139f 	movw	r1, #927	; 0x39f
 5102978:	e3403511 	movt	r3, #1297	; 0x511
 510297c:	e3400512 	movt	r0, #1298	; 0x512
 5102980:	e12fff33 	blx	r3
        QueueHandle_t xHandle = NULL;
 5102984:	e1a00004 	mov	r0, r4
    }
 5102988:	e8bd8070 	pop	{r4, r5, r6, pc}

0510298c <xQueueGenericCreateStatic>:
    {
 510298c:	e92d40f0 	push	{r4, r5, r6, r7, lr}
        configASSERT( pxStaticQueue );
 5102990:	e2534000 	subs	r4, r3, #0
    {
 5102994:	e24dd00c 	sub	sp, sp, #12
        configASSERT( pxStaticQueue );
 5102998:	0a000033 	beq	5102a6c <xQueueGenericCreateStatic+0xe0>
 510299c:	e1a06000 	mov	r6, r0
        if( ( uxQueueLength > ( UBaseType_t ) 0 ) &&
 51029a0:	e3500000 	cmp	r0, #0
 51029a4:	0a000027 	beq	5102a48 <xQueueGenericCreateStatic+0xbc>
 51029a8:	e1a05001 	mov	r5, r1
            ( !( ( pucQueueStorage != NULL ) && ( uxItemSize == 0U ) ) ) &&
 51029ac:	e2513000 	subs	r3, r1, #0
 51029b0:	13a03001 	movne	r3, #1
 51029b4:	e1a07002 	mov	r7, r2
            ( pxStaticQueue != NULL ) &&
 51029b8:	e3520000 	cmp	r2, #0
 51029bc:	03833001 	orreq	r3, r3, #1
 51029c0:	e3530000 	cmp	r3, #0
 51029c4:	0a00001f 	beq	5102a48 <xQueueGenericCreateStatic+0xbc>
            ( !( ( pucQueueStorage == NULL ) && ( uxItemSize != 0U ) ) ) )
 51029c8:	e16f3f11 	clz	r3, r1
 51029cc:	e1a032a3 	lsr	r3, r3, #5
            ( !( ( pucQueueStorage != NULL ) && ( uxItemSize == 0U ) ) ) &&
 51029d0:	e3520000 	cmp	r2, #0
 51029d4:	13833001 	orrne	r3, r3, #1
 51029d8:	e3530000 	cmp	r3, #0
 51029dc:	0a000019 	beq	5102a48 <xQueueGenericCreateStatic+0xbc>
                volatile size_t xSize = sizeof( StaticQueue_t );
 51029e0:	e3a0304c 	mov	r3, #76	; 0x4c
 51029e4:	e58d3004 	str	r3, [sp, #4]
                configASSERT( xSize == sizeof( Queue_t ) ); /* LCOV_EXCL_BR_LINE */
 51029e8:	e59d3004 	ldr	r3, [sp, #4]
 51029ec:	e353004c 	cmp	r3, #76	; 0x4c
 51029f0:	0a000005 	beq	5102a0c <xQueueGenericCreateStatic+0x80>
 51029f4:	e30d0a74 	movw	r0, #55924	; 0xda74
 51029f8:	e3003900 	movw	r3, #2304	; 0x900
 51029fc:	e3001196 	movw	r1, #406	; 0x196
 5102a00:	e3400512 	movt	r0, #1298	; 0x512
 5102a04:	e3403511 	movt	r3, #1297	; 0x511
 5102a08:	e12fff33 	blx	r3
                pxNewQueue->ucStaticallyAllocated = pdTRUE;
 5102a0c:	e3a01001 	mov	r1, #1
 5102a10:	e3550000 	cmp	r5, #0
 5102a14:	01a07004 	moveq	r7, r4
    ( void ) xQueueGenericReset( pxNewQueue, pdTRUE );
 5102a18:	e1a00004 	mov	r0, r4
    pxNewQueue->uxLength = uxQueueLength;
 5102a1c:	e584603c 	str	r6, [r4, #60]	; 0x3c
                pxNewQueue->ucStaticallyAllocated = pdTRUE;
 5102a20:	e5c41046 	strb	r1, [r4, #70]	; 0x46
 5102a24:	e5847000 	str	r7, [r4]
    pxNewQueue->uxItemSize = uxItemSize;
 5102a28:	e5845040 	str	r5, [r4, #64]	; 0x40
                ( void ) xSize;                             /* Prevent unused variable warning when configASSERT() is not defined. */
 5102a2c:	e59d3004 	ldr	r3, [sp, #4]
    ( void ) xQueueGenericReset( pxNewQueue, pdTRUE );
 5102a30:	ebffff52 	bl	5102780 <xQueueGenericReset>
        pxNewQueue->pxQueueSetContainer = NULL;
 5102a34:	e3a03000 	mov	r3, #0
}
 5102a38:	e1a00004 	mov	r0, r4
        pxNewQueue->pxQueueSetContainer = NULL;
 5102a3c:	e5843048 	str	r3, [r4, #72]	; 0x48
    }
 5102a40:	e28dd00c 	add	sp, sp, #12
 5102a44:	e8bd80f0 	pop	{r4, r5, r6, r7, pc}
 5102a48:	e3004900 	movw	r4, #2304	; 0x900
 5102a4c:	e3404511 	movt	r4, #1297	; 0x511
            configASSERT( pxNewQueue );
 5102a50:	e30d0a74 	movw	r0, #55924	; 0xda74
 5102a54:	e3a01e1b 	mov	r1, #432	; 0x1b0
 5102a58:	e3400512 	movt	r0, #1298	; 0x512
 5102a5c:	e12fff34 	blx	r4
        Queue_t * pxNewQueue = NULL;
 5102a60:	e3a00000 	mov	r0, #0
    }
 5102a64:	e28dd00c 	add	sp, sp, #12
 5102a68:	e8bd80f0 	pop	{r4, r5, r6, r7, pc}
        configASSERT( pxStaticQueue );
 5102a6c:	e30d0a74 	movw	r0, #55924	; 0xda74
 5102a70:	e3004900 	movw	r4, #2304	; 0x900
 5102a74:	e3a01f61 	mov	r1, #388	; 0x184
 5102a78:	e3404511 	movt	r4, #1297	; 0x511
 5102a7c:	e3400512 	movt	r0, #1298	; 0x512
 5102a80:	e12fff34 	blx	r4
        if( ( uxQueueLength > ( UBaseType_t ) 0 ) &&
 5102a84:	eafffff1 	b	5102a50 <xQueueGenericCreateStatic+0xc4>

05102a88 <xQueueCreateMutexStatic>:
    {
 5102a88:	e92d4030 	push	{r4, r5, lr}
        configASSERT( pxStaticQueue );
 5102a8c:	e2514000 	subs	r4, r1, #0
    {
 5102a90:	e24dd00c 	sub	sp, sp, #12
        configASSERT( pxStaticQueue );
 5102a94:	0a000019 	beq	5102b00 <xQueueCreateMutexStatic+0x78>
                volatile size_t xSize = sizeof( StaticQueue_t );
 5102a98:	e3a0304c 	mov	r3, #76	; 0x4c
 5102a9c:	e58d3004 	str	r3, [sp, #4]
                configASSERT( xSize == sizeof( Queue_t ) ); /* LCOV_EXCL_BR_LINE */
 5102aa0:	e59d3004 	ldr	r3, [sp, #4]
 5102aa4:	e353004c 	cmp	r3, #76	; 0x4c
 5102aa8:	1a000021 	bne	5102b34 <xQueueCreateMutexStatic+0xac>
    pxNewQueue->uxItemSize = uxItemSize;
 5102aac:	e3a05000 	mov	r5, #0
                pxNewQueue->ucStaticallyAllocated = pdTRUE;
 5102ab0:	e3a01001 	mov	r1, #1
        pxNewQueue->pcHead = ( int8_t * ) pxNewQueue;
 5102ab4:	e5844000 	str	r4, [r4]
    ( void ) xQueueGenericReset( pxNewQueue, pdTRUE );
 5102ab8:	e1a00004 	mov	r0, r4
                pxNewQueue->ucStaticallyAllocated = pdTRUE;
 5102abc:	e5c41046 	strb	r1, [r4, #70]	; 0x46
    pxNewQueue->uxLength = uxQueueLength;
 5102ac0:	e584103c 	str	r1, [r4, #60]	; 0x3c
    pxNewQueue->uxItemSize = uxItemSize;
 5102ac4:	e5845040 	str	r5, [r4, #64]	; 0x40
                ( void ) xSize;                             /* Prevent unused variable warning when configASSERT() is not defined. */
 5102ac8:	e59d3004 	ldr	r3, [sp, #4]
    ( void ) xQueueGenericReset( pxNewQueue, pdTRUE );
 5102acc:	ebffff2b 	bl	5102780 <xQueueGenericReset>
            ( void ) xQueueGenericSend( pxNewQueue, NULL, ( TickType_t ) 0U, queueSEND_TO_BACK );
 5102ad0:	e1a03005 	mov	r3, r5
 5102ad4:	e1a02005 	mov	r2, r5
 5102ad8:	e1a01005 	mov	r1, r5
 5102adc:	e1a00004 	mov	r0, r4
        pxNewQueue->pxQueueSetContainer = NULL;
 5102ae0:	e5845048 	str	r5, [r4, #72]	; 0x48
            pxNewQueue->u.xSemaphore.xMutexHolder = NULL;
 5102ae4:	e5845008 	str	r5, [r4, #8]
            pxNewQueue->uxQueueType = queueQUEUE_IS_MUTEX;
 5102ae8:	e5845000 	str	r5, [r4]
            pxNewQueue->u.xSemaphore.uxRecursiveCallCount = 0;
 5102aec:	e584500c 	str	r5, [r4, #12]
            ( void ) xQueueGenericSend( pxNewQueue, NULL, ( TickType_t ) 0U, queueSEND_TO_BACK );
 5102af0:	ebfff94e 	bl	5101030 <xQueueGenericSend>
    }
 5102af4:	e1a00004 	mov	r0, r4
 5102af8:	e28dd00c 	add	sp, sp, #12
 5102afc:	e8bd8030 	pop	{r4, r5, pc}
        configASSERT( pxStaticQueue );
 5102b00:	e30d0a74 	movw	r0, #55924	; 0xda74
 5102b04:	e3005900 	movw	r5, #2304	; 0x900
 5102b08:	e3a01f61 	mov	r1, #388	; 0x184
 5102b0c:	e3405511 	movt	r5, #1297	; 0x511
 5102b10:	e3400512 	movt	r0, #1298	; 0x512
 5102b14:	e12fff35 	blx	r5
            configASSERT( pxNewQueue );
 5102b18:	e30d0a74 	movw	r0, #55924	; 0xda74
 5102b1c:	e3a01e1b 	mov	r1, #432	; 0x1b0
 5102b20:	e3400512 	movt	r0, #1298	; 0x512
 5102b24:	e12fff35 	blx	r5
    }
 5102b28:	e1a00004 	mov	r0, r4
 5102b2c:	e28dd00c 	add	sp, sp, #12
 5102b30:	e8bd8030 	pop	{r4, r5, pc}
                configASSERT( xSize == sizeof( Queue_t ) ); /* LCOV_EXCL_BR_LINE */
 5102b34:	e30d0a74 	movw	r0, #55924	; 0xda74
 5102b38:	e3003900 	movw	r3, #2304	; 0x900
 5102b3c:	e3001196 	movw	r1, #406	; 0x196
 5102b40:	e3403511 	movt	r3, #1297	; 0x511
 5102b44:	e3400512 	movt	r0, #1298	; 0x512
 5102b48:	e12fff33 	blx	r3
 5102b4c:	eaffffd6 	b	5102aac <xQueueCreateMutexStatic+0x24>

05102b50 <xQueueCreateMutex>:
            pxNewQueue = ( Queue_t * ) pvPortMalloc( sizeof( Queue_t ) + xQueueSizeInBytes );
 5102b50:	e3073f74 	movw	r3, #32628	; 0x7f74
 5102b54:	e3a0004c 	mov	r0, #76	; 0x4c
    {
 5102b58:	e92d4070 	push	{r4, r5, r6, lr}
            pxNewQueue = ( Queue_t * ) pvPortMalloc( sizeof( Queue_t ) + xQueueSizeInBytes );
 5102b5c:	e3403510 	movt	r3, #1296	; 0x510
 5102b60:	e12fff33 	blx	r3
            if( pxNewQueue != NULL )
 5102b64:	e2504000 	subs	r4, r0, #0
 5102b68:	0a00000f 	beq	5102bac <xQueueCreateMutex+0x5c>
                    pxNewQueue->ucStaticallyAllocated = pdFALSE;
 5102b6c:	e3a05000 	mov	r5, #0
    pxNewQueue->uxLength = uxQueueLength;
 5102b70:	e3a01001 	mov	r1, #1
        pxNewQueue->pcHead = ( int8_t * ) pxNewQueue;
 5102b74:	e5844000 	str	r4, [r4]
    pxNewQueue->uxLength = uxQueueLength;
 5102b78:	e584103c 	str	r1, [r4, #60]	; 0x3c
                    pxNewQueue->ucStaticallyAllocated = pdFALSE;
 5102b7c:	e5c45046 	strb	r5, [r4, #70]	; 0x46
    pxNewQueue->uxItemSize = uxItemSize;
 5102b80:	e5845040 	str	r5, [r4, #64]	; 0x40
    ( void ) xQueueGenericReset( pxNewQueue, pdTRUE );
 5102b84:	ebfffefd 	bl	5102780 <xQueueGenericReset>
            ( void ) xQueueGenericSend( pxNewQueue, NULL, ( TickType_t ) 0U, queueSEND_TO_BACK );
 5102b88:	e1a03005 	mov	r3, r5
 5102b8c:	e1a02005 	mov	r2, r5
 5102b90:	e1a01005 	mov	r1, r5
        pxNewQueue->pxQueueSetContainer = NULL;
 5102b94:	e5845048 	str	r5, [r4, #72]	; 0x48
            ( void ) xQueueGenericSend( pxNewQueue, NULL, ( TickType_t ) 0U, queueSEND_TO_BACK );
 5102b98:	e1a00004 	mov	r0, r4
            pxNewQueue->u.xSemaphore.xMutexHolder = NULL;
 5102b9c:	e5845008 	str	r5, [r4, #8]
            pxNewQueue->uxQueueType = queueQUEUE_IS_MUTEX;
 5102ba0:	e5845000 	str	r5, [r4]
            pxNewQueue->u.xSemaphore.uxRecursiveCallCount = 0;
 5102ba4:	e584500c 	str	r5, [r4, #12]
            ( void ) xQueueGenericSend( pxNewQueue, NULL, ( TickType_t ) 0U, queueSEND_TO_BACK );
 5102ba8:	ebfff920 	bl	5101030 <xQueueGenericSend>
    }
 5102bac:	e1a00004 	mov	r0, r4
 5102bb0:	e8bd8070 	pop	{r4, r5, r6, pc}

05102bb4 <xQueueCreateCountingSemaphoreStatic>:
    {
 5102bb4:	e92d40f0 	push	{r4, r5, r6, r7, lr}
        if( ( uxMaxCount != 0U ) &&
 5102bb8:	e2505000 	subs	r5, r0, #0
 5102bbc:	13a05001 	movne	r5, #1
 5102bc0:	e1500001 	cmp	r0, r1
 5102bc4:	33a05000 	movcc	r5, #0
    {
 5102bc8:	e24dd00c 	sub	sp, sp, #12
        if( ( uxMaxCount != 0U ) &&
 5102bcc:	e3550000 	cmp	r5, #0
 5102bd0:	0a000024 	beq	5102c68 <xQueueCreateCountingSemaphoreStatic+0xb4>
 5102bd4:	e1a04002 	mov	r4, r2
        configASSERT( pxStaticQueue );
 5102bd8:	e3520000 	cmp	r2, #0
 5102bdc:	0a000014 	beq	5102c34 <xQueueCreateCountingSemaphoreStatic+0x80>
                volatile size_t xSize = sizeof( StaticQueue_t );
 5102be0:	e3a0304c 	mov	r3, #76	; 0x4c
 5102be4:	e1a07001 	mov	r7, r1
 5102be8:	e1a06000 	mov	r6, r0
 5102bec:	e58d3004 	str	r3, [sp, #4]
                configASSERT( xSize == sizeof( Queue_t ) ); /* LCOV_EXCL_BR_LINE */
 5102bf0:	e59d3004 	ldr	r3, [sp, #4]
 5102bf4:	e353004c 	cmp	r3, #76	; 0x4c
 5102bf8:	1a000023 	bne	5102c8c <xQueueCreateCountingSemaphoreStatic+0xd8>
                pxNewQueue->ucStaticallyAllocated = pdTRUE;
 5102bfc:	e3a01001 	mov	r1, #1
    pxNewQueue->uxItemSize = uxItemSize;
 5102c00:	e3a05000 	mov	r5, #0
        pxNewQueue->pcHead = ( int8_t * ) pxNewQueue;
 5102c04:	e5844000 	str	r4, [r4]
    ( void ) xQueueGenericReset( pxNewQueue, pdTRUE );
 5102c08:	e1a00004 	mov	r0, r4
    pxNewQueue->uxLength = uxQueueLength;
 5102c0c:	e584603c 	str	r6, [r4, #60]	; 0x3c
                pxNewQueue->ucStaticallyAllocated = pdTRUE;
 5102c10:	e5c41046 	strb	r1, [r4, #70]	; 0x46
    pxNewQueue->uxItemSize = uxItemSize;
 5102c14:	e5845040 	str	r5, [r4, #64]	; 0x40
                ( void ) xSize;                             /* Prevent unused variable warning when configASSERT() is not defined. */
 5102c18:	e59d3004 	ldr	r3, [sp, #4]
    ( void ) xQueueGenericReset( pxNewQueue, pdTRUE );
 5102c1c:	ebfffed7 	bl	5102780 <xQueueGenericReset>
        pxNewQueue->pxQueueSetContainer = NULL;
 5102c20:	e5845048 	str	r5, [r4, #72]	; 0x48
                ( ( Queue_t * ) xHandle )->uxMessagesWaiting = uxInitialCount;
 5102c24:	e1a00004 	mov	r0, r4
 5102c28:	e5847038 	str	r7, [r4, #56]	; 0x38
    }
 5102c2c:	e28dd00c 	add	sp, sp, #12
 5102c30:	e8bd80f0 	pop	{r4, r5, r6, r7, pc}
        configASSERT( pxStaticQueue );
 5102c34:	e30d0a74 	movw	r0, #55924	; 0xda74
 5102c38:	e3005900 	movw	r5, #2304	; 0x900
 5102c3c:	e3a01f61 	mov	r1, #388	; 0x184
 5102c40:	e3405511 	movt	r5, #1297	; 0x511
 5102c44:	e3400512 	movt	r0, #1298	; 0x512
 5102c48:	e12fff35 	blx	r5
            configASSERT( pxNewQueue );
 5102c4c:	e30d0a74 	movw	r0, #55924	; 0xda74
 5102c50:	e3a01e1b 	mov	r1, #432	; 0x1b0
 5102c54:	e3400512 	movt	r0, #1298	; 0x512
 5102c58:	e12fff35 	blx	r5
        Queue_t * pxNewQueue = NULL;
 5102c5c:	e1a00004 	mov	r0, r4
    }
 5102c60:	e28dd00c 	add	sp, sp, #12
 5102c64:	e8bd80f0 	pop	{r4, r5, r6, r7, pc}
            configASSERT( xHandle );
 5102c68:	e30d0a74 	movw	r0, #55924	; 0xda74
 5102c6c:	e3003900 	movw	r3, #2304	; 0x900
 5102c70:	e3a01fde 	mov	r1, #888	; 0x378
 5102c74:	e3403511 	movt	r3, #1297	; 0x511
 5102c78:	e3400512 	movt	r0, #1298	; 0x512
 5102c7c:	e12fff33 	blx	r3
        QueueHandle_t xHandle = NULL;
 5102c80:	e1a00005 	mov	r0, r5
    }
 5102c84:	e28dd00c 	add	sp, sp, #12
 5102c88:	e8bd80f0 	pop	{r4, r5, r6, r7, pc}
                configASSERT( xSize == sizeof( Queue_t ) ); /* LCOV_EXCL_BR_LINE */
 5102c8c:	e30d0a74 	movw	r0, #55924	; 0xda74
 5102c90:	e3003900 	movw	r3, #2304	; 0x900
 5102c94:	e3001196 	movw	r1, #406	; 0x196
 5102c98:	e3403511 	movt	r3, #1297	; 0x511
 5102c9c:	e3400512 	movt	r0, #1298	; 0x512
 5102ca0:	e12fff33 	blx	r3
 5102ca4:	eaffffd4 	b	5102bfc <xQueueCreateCountingSemaphoreStatic+0x48>

05102ca8 <xQueueCreateSet>:
    {
 5102ca8:	e92d4070 	push	{r4, r5, r6, lr}
        if( ( uxQueueLength > ( UBaseType_t ) 0 ) &&
 5102cac:	e2504000 	subs	r4, r0, #0
 5102cb0:	0a000015 	beq	5102d0c <xQueueCreateSet+0x64>
            ( ( SIZE_MAX / uxQueueLength ) >= uxItemSize ) &&
 5102cb4:	e1b06f24 	lsrs	r6, r4, #30
 5102cb8:	1a000013 	bne	5102d0c <xQueueCreateSet+0x64>
            ( ( UBaseType_t ) ( SIZE_MAX - sizeof( Queue_t ) ) >= ( uxQueueLength * uxItemSize ) ) )
 5102cbc:	e1a00104 	lsl	r0, r4, #2
            ( ( SIZE_MAX / uxQueueLength ) >= uxItemSize ) &&
 5102cc0:	e370004d 	cmn	r0, #77	; 0x4d
 5102cc4:	8a000010 	bhi	5102d0c <xQueueCreateSet+0x64>
            pxNewQueue = ( Queue_t * ) pvPortMalloc( sizeof( Queue_t ) + xQueueSizeInBytes );
 5102cc8:	e3073f74 	movw	r3, #32628	; 0x7f74
 5102ccc:	e280004c 	add	r0, r0, #76	; 0x4c
 5102cd0:	e3403510 	movt	r3, #1296	; 0x510
 5102cd4:	e12fff33 	blx	r3
            if( pxNewQueue != NULL )
 5102cd8:	e2505000 	subs	r5, r0, #0
 5102cdc:	0a000011 	beq	5102d28 <xQueueCreateSet+0x80>
    pxNewQueue->uxItemSize = uxItemSize;
 5102ce0:	e3a03004 	mov	r3, #4
                pucQueueStorage += sizeof( Queue_t );
 5102ce4:	e285204c 	add	r2, r5, #76	; 0x4c
                    pxNewQueue->ucStaticallyAllocated = pdFALSE;
 5102ce8:	e5c56046 	strb	r6, [r5, #70]	; 0x46
    ( void ) xQueueGenericReset( pxNewQueue, pdTRUE );
 5102cec:	e3a01001 	mov	r1, #1
    pxNewQueue->uxLength = uxQueueLength;
 5102cf0:	e585403c 	str	r4, [r5, #60]	; 0x3c
        pxNewQueue->pcHead = ( int8_t * ) pucQueueStorage;
 5102cf4:	e5852000 	str	r2, [r5]
    pxNewQueue->uxItemSize = uxItemSize;
 5102cf8:	e5853040 	str	r3, [r5, #64]	; 0x40
    ( void ) xQueueGenericReset( pxNewQueue, pdTRUE );
 5102cfc:	ebfffe9f 	bl	5102780 <xQueueGenericReset>
        pxNewQueue->pxQueueSetContainer = NULL;
 5102d00:	e5856048 	str	r6, [r5, #72]	; 0x48
    }
 5102d04:	e1a00005 	mov	r0, r5
 5102d08:	e8bd8070 	pop	{r4, r5, r6, pc}
            configASSERT( pxNewQueue );
 5102d0c:	e30d0a74 	movw	r0, #55924	; 0xda74
 5102d10:	e3003900 	movw	r3, #2304	; 0x900
 5102d14:	e300122a 	movw	r1, #554	; 0x22a
 5102d18:	e3400512 	movt	r0, #1298	; 0x512
        Queue_t * pxNewQueue = NULL;
 5102d1c:	e3a05000 	mov	r5, #0
            configASSERT( pxNewQueue );
 5102d20:	e3403511 	movt	r3, #1297	; 0x511
 5102d24:	e12fff33 	blx	r3
    }
 5102d28:	e1a00005 	mov	r0, r5
 5102d2c:	e8bd8070 	pop	{r4, r5, r6, pc}

05102d30 <uxQueueGetQueueItemSize>:
}
 5102d30:	e5900040 	ldr	r0, [r0, #64]	; 0x40
 5102d34:	e12fff1e 	bx	lr

05102d38 <uxQueueGetQueueLength>:
}
 5102d38:	e590003c 	ldr	r0, [r0, #60]	; 0x3c
 5102d3c:	e12fff1e 	bx	lr

05102d40 <prvWriteBytesToBuffer>:

static size_t prvWriteBytesToBuffer( StreamBuffer_t * const pxStreamBuffer,
                                     const uint8_t * pucData,
                                     size_t xCount,
                                     size_t xHead )
{
 5102d40:	e92d47f0 	push	{r4, r5, r6, r7, r8, r9, sl, lr}
 5102d44:	e1a05000 	mov	r5, r0
    size_t xFirstLength;

    configASSERT( xCount > ( size_t ) 0 );
 5102d48:	e2524000 	subs	r4, r2, #0
{
 5102d4c:	e1a09001 	mov	r9, r1
 5102d50:	e1a06003 	mov	r6, r3
    configASSERT( xCount > ( size_t ) 0 );
 5102d54:	0a00001e 	beq	5102dd4 <prvWriteBytesToBuffer+0x94>

    /* Calculate the number of bytes that can be added in the first write -
     * which may be less than the total number of bytes that need to be added if
     * the buffer will wrap back to the beginning. */
    xFirstLength = configMIN( pxStreamBuffer->xLength - xHead, xCount );
 5102d58:	e5903008 	ldr	r3, [r0, #8]
 5102d5c:	e0437006 	sub	r7, r3, r6
 5102d60:	e1570004 	cmp	r7, r4
 5102d64:	21a07004 	movcs	r7, r4

    /* Write as many bytes as can be written in the first write. */
    configASSERT( ( xHead + xFirstLength ) <= pxStreamBuffer->xLength );
 5102d68:	e0862007 	add	r2, r6, r7
 5102d6c:	e1530002 	cmp	r3, r2
 5102d70:	33008900 	movwcc	r8, #2304	; 0x900
 5102d74:	33408511 	movtcc	r8, #1297	; 0x511
 5102d78:	3a00001f 	bcc	5102dfc <prvWriteBytesToBuffer+0xbc>
    ( void ) memcpy( ( void * ) ( &( pxStreamBuffer->pucBuffer[ xHead ] ) ), ( const void * ) pucData, xFirstLength );
 5102d7c:	e5950018 	ldr	r0, [r5, #24]
 5102d80:	e3098ca1 	movw	r8, #40097	; 0x9ca1
 5102d84:	e1a02007 	mov	r2, r7
 5102d88:	e3408511 	movt	r8, #1297	; 0x511
 5102d8c:	e1a01009 	mov	r1, r9
 5102d90:	e0800006 	add	r0, r0, r6
 5102d94:	e12fff38 	blx	r8
    /* If the number of bytes written was less than the number that could be
     * written in the first write... */
    if( xCount > xFirstLength )
    {
        /* ...then write the remaining bytes to the start of the buffer. */
        configASSERT( ( xCount - xFirstLength ) <= pxStreamBuffer->xLength );
 5102d98:	e5953008 	ldr	r3, [r5, #8]
    if( xCount > xFirstLength )
 5102d9c:	e1540007 	cmp	r4, r7
 5102da0:	9a000007 	bls	5102dc4 <prvWriteBytesToBuffer+0x84>
        configASSERT( ( xCount - xFirstLength ) <= pxStreamBuffer->xLength );
 5102da4:	e044a007 	sub	sl, r4, r7
 5102da8:	e15a0003 	cmp	sl, r3
 5102dac:	8a000017 	bhi	5102e10 <prvWriteBytesToBuffer+0xd0>
        ( void ) memcpy( ( void * ) pxStreamBuffer->pucBuffer, ( const void * ) &( pucData[ xFirstLength ] ), xCount - xFirstLength );
 5102db0:	e5950018 	ldr	r0, [r5, #24]
 5102db4:	e0891007 	add	r1, r9, r7
 5102db8:	e1a0200a 	mov	r2, sl
 5102dbc:	e12fff38 	blx	r8
 5102dc0:	e5953008 	ldr	r3, [r5, #8]
    else
    {
        mtCOVERAGE_TEST_MARKER();
    }

    xHead += xCount;
 5102dc4:	e0840006 	add	r0, r4, r6

    if( xHead >= pxStreamBuffer->xLength )
 5102dc8:	e1530000 	cmp	r3, r0
    {
        xHead -= pxStreamBuffer->xLength;
 5102dcc:	90400003 	subls	r0, r0, r3
    {
        mtCOVERAGE_TEST_MARKER();
    }

    return xHead;
}
 5102dd0:	e8bd87f0 	pop	{r4, r5, r6, r7, r8, r9, sl, pc}
    configASSERT( xCount > ( size_t ) 0 );
 5102dd4:	e30d0a94 	movw	r0, #55956	; 0xda94
 5102dd8:	e3008900 	movw	r8, #2304	; 0x900
 5102ddc:	e30015cb 	movw	r1, #1483	; 0x5cb
 5102de0:	e3400512 	movt	r0, #1298	; 0x512
 5102de4:	e3408511 	movt	r8, #1297	; 0x511
 5102de8:	e12fff38 	blx	r8
    configASSERT( ( xHead + xFirstLength ) <= pxStreamBuffer->xLength );
 5102dec:	e5953008 	ldr	r3, [r5, #8]
 5102df0:	e1560003 	cmp	r6, r3
 5102df4:	9afffff2 	bls	5102dc4 <prvWriteBytesToBuffer+0x84>
    xFirstLength = configMIN( pxStreamBuffer->xLength - xHead, xCount );
 5102df8:	e1a07004 	mov	r7, r4
    configASSERT( ( xHead + xFirstLength ) <= pxStreamBuffer->xLength );
 5102dfc:	e30d0a94 	movw	r0, #55956	; 0xda94
 5102e00:	e30015d3 	movw	r1, #1491	; 0x5d3
 5102e04:	e3400512 	movt	r0, #1298	; 0x512
 5102e08:	e12fff38 	blx	r8
 5102e0c:	eaffffda 	b	5102d7c <prvWriteBytesToBuffer+0x3c>
        configASSERT( ( xCount - xFirstLength ) <= pxStreamBuffer->xLength );
 5102e10:	e30d0a94 	movw	r0, #55956	; 0xda94
 5102e14:	e3003900 	movw	r3, #2304	; 0x900
 5102e18:	e30015db 	movw	r1, #1499	; 0x5db
 5102e1c:	e3403511 	movt	r3, #1297	; 0x511
 5102e20:	e3400512 	movt	r0, #1298	; 0x512
 5102e24:	e12fff33 	blx	r3
 5102e28:	eaffffe0 	b	5102db0 <prvWriteBytesToBuffer+0x70>

05102e2c <prvWriteMessageToBuffer>:
{
 5102e2c:	e92d4070 	push	{r4, r5, r6, lr}
    if( ( pxStreamBuffer->ucFlags & sbFLAGS_IS_MESSAGE_BUFFER ) != ( uint8_t ) 0 )
 5102e30:	e5d0c01c 	ldrb	ip, [r0, #28]
{
 5102e34:	e1a06001 	mov	r6, r1
    if( ( pxStreamBuffer->ucFlags & sbFLAGS_IS_MESSAGE_BUFFER ) != ( uint8_t ) 0 )
 5102e38:	e31c0001 	tst	ip, #1
    size_t xNextHead = pxStreamBuffer->xHead;
 5102e3c:	e5901004 	ldr	r1, [r0, #4]
{
 5102e40:	e24dd008 	sub	sp, sp, #8
 5102e44:	e1a05000 	mov	r5, r0
    if( ( pxStreamBuffer->ucFlags & sbFLAGS_IS_MESSAGE_BUFFER ) != ( uint8_t ) 0 )
 5102e48:	0a000007 	beq	5102e6c <prvWriteMessageToBuffer+0x40>
        if( xSpace >= xRequiredSpace )
 5102e4c:	e59dc018 	ldr	ip, [sp, #24]
        xMessageLength = ( configMESSAGE_BUFFER_LENGTH_TYPE ) xDataLengthBytes;
 5102e50:	e58d2004 	str	r2, [sp, #4]
        if( xSpace >= xRequiredSpace )
 5102e54:	e153000c 	cmp	r3, ip
            xDataLengthBytes = 0;
 5102e58:	33a04000 	movcc	r4, #0
        if( xSpace >= xRequiredSpace )
 5102e5c:	2a000010 	bcs	5102ea4 <prvWriteMessageToBuffer+0x78>
}
 5102e60:	e1a00004 	mov	r0, r4
 5102e64:	e28dd008 	add	sp, sp, #8
 5102e68:	e8bd8070 	pop	{r4, r5, r6, pc}
        xDataLengthBytes = configMIN( xDataLengthBytes, xSpace );
 5102e6c:	e1530002 	cmp	r3, r2
 5102e70:	31a04003 	movcc	r4, r3
 5102e74:	21a04002 	movcs	r4, r2
    if( xDataLengthBytes != ( size_t ) 0 )
 5102e78:	e3540000 	cmp	r4, #0
 5102e7c:	0afffff7 	beq	5102e60 <prvWriteMessageToBuffer+0x34>
        pxStreamBuffer->xHead = prvWriteBytesToBuffer( pxStreamBuffer, ( const uint8_t * ) pvTxData, xDataLengthBytes, xNextHead );
 5102e80:	e1a03001 	mov	r3, r1
 5102e84:	e1a02004 	mov	r2, r4
 5102e88:	e1a01006 	mov	r1, r6
 5102e8c:	e1a00005 	mov	r0, r5
 5102e90:	ebffffaa 	bl	5102d40 <prvWriteBytesToBuffer>
 5102e94:	e5850004 	str	r0, [r5, #4]
}
 5102e98:	e1a00004 	mov	r0, r4
 5102e9c:	e28dd008 	add	sp, sp, #8
 5102ea0:	e8bd8070 	pop	{r4, r5, r6, pc}
            xNextHead = prvWriteBytesToBuffer( pxStreamBuffer, ( const uint8_t * ) &( xMessageLength ), sbBYTES_TO_STORE_MESSAGE_LENGTH, xNextHead );
 5102ea4:	e1a04002 	mov	r4, r2
 5102ea8:	e3a02004 	mov	r2, #4
 5102eac:	e1a03001 	mov	r3, r1
 5102eb0:	e08d1002 	add	r1, sp, r2
 5102eb4:	ebffffa1 	bl	5102d40 <prvWriteBytesToBuffer>
 5102eb8:	e1a01000 	mov	r1, r0
 5102ebc:	eaffffed 	b	5102e78 <prvWriteMessageToBuffer+0x4c>

05102ec0 <prvReadBytesFromBuffer>:

static size_t prvReadBytesFromBuffer( StreamBuffer_t * pxStreamBuffer,
                                      uint8_t * pucData,
                                      size_t xCount,
                                      size_t xTail )
{
 5102ec0:	e92d47f0 	push	{r4, r5, r6, r7, r8, r9, sl, lr}
 5102ec4:	e1a07000 	mov	r7, r0
    size_t xFirstLength;

    configASSERT( xCount != ( size_t ) 0 );
 5102ec8:	e2524000 	subs	r4, r2, #0
{
 5102ecc:	e1a09001 	mov	r9, r1
 5102ed0:	e1a05003 	mov	r5, r3
    configASSERT( xCount != ( size_t ) 0 );
 5102ed4:	0a000025 	beq	5102f70 <prvReadBytesFromBuffer+0xb0>

    /* Calculate the number of bytes that can be read - which may be
     * less than the number wanted if the data wraps around to the start of
     * the buffer. */
    xFirstLength = configMIN( pxStreamBuffer->xLength - xTail, xCount );
 5102ed8:	e5903008 	ldr	r3, [r0, #8]
 5102edc:	e0436005 	sub	r6, r3, r5
 5102ee0:	e1560004 	cmp	r6, r4
 5102ee4:	21a06004 	movcs	r6, r4

    /* Obtain the number of bytes it is possible to obtain in the first
     * read.  Asserts check bounds of read and write. */
    configASSERT( xFirstLength <= xCount );
 5102ee8:	e1540006 	cmp	r4, r6
 5102eec:	3a000017 	bcc	5102f50 <prvReadBytesFromBuffer+0x90>
    configASSERT( ( xTail + xFirstLength ) <= pxStreamBuffer->xLength );
 5102ef0:	e0852006 	add	r2, r5, r6
 5102ef4:	e1520003 	cmp	r2, r3
 5102ef8:	83008900 	movwhi	r8, #2304	; 0x900
 5102efc:	83408511 	movthi	r8, #1297	; 0x511
 5102f00:	8a000024 	bhi	5102f98 <prvReadBytesFromBuffer+0xd8>
    ( void ) memcpy( ( void * ) pucData, ( const void * ) &( pxStreamBuffer->pucBuffer[ xTail ] ), xFirstLength );
 5102f04:	e5971018 	ldr	r1, [r7, #24]
 5102f08:	e3098ca1 	movw	r8, #40097	; 0x9ca1
 5102f0c:	e1a02006 	mov	r2, r6
 5102f10:	e3408511 	movt	r8, #1297	; 0x511
 5102f14:	e1a00009 	mov	r0, r9
 5102f18:	e0811005 	add	r1, r1, r5
 5102f1c:	e12fff38 	blx	r8

    /* If the total number of wanted bytes is greater than the number
     * that could be read in the first read... */
    if( xCount > xFirstLength )
 5102f20:	e1540006 	cmp	r4, r6
 5102f24:	8a000004 	bhi	5102f3c <prvReadBytesFromBuffer+0x7c>
 5102f28:	e5973008 	ldr	r3, [r7, #8]
    {
        mtCOVERAGE_TEST_MARKER();
    }

    /* Move the tail pointer to effectively remove the data read from the buffer. */
    xTail += xCount;
 5102f2c:	e0840005 	add	r0, r4, r5

    if( xTail >= pxStreamBuffer->xLength )
 5102f30:	e1530000 	cmp	r3, r0
    {
        xTail -= pxStreamBuffer->xLength;
 5102f34:	90400003 	subls	r0, r0, r3
    }

    return xTail;
}
 5102f38:	e8bd87f0 	pop	{r4, r5, r6, r7, r8, r9, sl, pc}
        ( void ) memcpy( ( void * ) &( pucData[ xFirstLength ] ), ( void * ) ( pxStreamBuffer->pucBuffer ), xCount - xFirstLength );
 5102f3c:	e5971018 	ldr	r1, [r7, #24]
 5102f40:	e0890006 	add	r0, r9, r6
 5102f44:	e0442006 	sub	r2, r4, r6
 5102f48:	e12fff38 	blx	r8
 5102f4c:	eafffff5 	b	5102f28 <prvReadBytesFromBuffer+0x68>
    configASSERT( xFirstLength <= xCount );
 5102f50:	e30d0a94 	movw	r0, #55956	; 0xda94
 5102f54:	e3008900 	movw	r8, #2304	; 0x900
 5102f58:	e3400512 	movt	r0, #1298	; 0x512
 5102f5c:	e3001602 	movw	r1, #1538	; 0x602
 5102f60:	e3408511 	movt	r8, #1297	; 0x511
 5102f64:	e12fff38 	blx	r8
    configASSERT( ( xTail + xFirstLength ) <= pxStreamBuffer->xLength );
 5102f68:	e5973008 	ldr	r3, [r7, #8]
 5102f6c:	eaffffdf 	b	5102ef0 <prvReadBytesFromBuffer+0x30>
    configASSERT( xCount != ( size_t ) 0 );
 5102f70:	e30d0a94 	movw	r0, #55956	; 0xda94
 5102f74:	e3008900 	movw	r8, #2304	; 0x900
 5102f78:	e30015f9 	movw	r1, #1529	; 0x5f9
 5102f7c:	e3400512 	movt	r0, #1298	; 0x512
 5102f80:	e3408511 	movt	r8, #1297	; 0x511
 5102f84:	e12fff38 	blx	r8
    configASSERT( ( xTail + xFirstLength ) <= pxStreamBuffer->xLength );
 5102f88:	e5973008 	ldr	r3, [r7, #8]
 5102f8c:	e1550003 	cmp	r5, r3
 5102f90:	9affffe5 	bls	5102f2c <prvReadBytesFromBuffer+0x6c>
    xFirstLength = configMIN( pxStreamBuffer->xLength - xTail, xCount );
 5102f94:	e1a06004 	mov	r6, r4
    configASSERT( ( xTail + xFirstLength ) <= pxStreamBuffer->xLength );
 5102f98:	e30d0a94 	movw	r0, #55956	; 0xda94
 5102f9c:	e3001603 	movw	r1, #1539	; 0x603
 5102fa0:	e3400512 	movt	r0, #1298	; 0x512
 5102fa4:	e12fff38 	blx	r8
 5102fa8:	eaffffd5 	b	5102f04 <prvReadBytesFromBuffer+0x44>

05102fac <prvReadMessageFromBuffer>:
{
 5102fac:	e92d40f0 	push	{r4, r5, r6, r7, lr}
 5102fb0:	e1a04003 	mov	r4, r3
    if( ( pxStreamBuffer->ucFlags & sbFLAGS_IS_MESSAGE_BUFFER ) != ( uint8_t ) 0 )
 5102fb4:	e5d0301c 	ldrb	r3, [r0, #28]
 5102fb8:	e3130001 	tst	r3, #1
{
 5102fbc:	e1a05000 	mov	r5, r0
 5102fc0:	e24dd00c 	sub	sp, sp, #12
    size_t xNextTail = pxStreamBuffer->xTail;
 5102fc4:	e5903000 	ldr	r3, [r0]
{
 5102fc8:	e1a07001 	mov	r7, r1
 5102fcc:	e1a06002 	mov	r6, r2
    if( ( pxStreamBuffer->ucFlags & sbFLAGS_IS_MESSAGE_BUFFER ) != ( uint8_t ) 0 )
 5102fd0:	1a00000b 	bne	5103004 <prvReadMessageFromBuffer+0x58>
    xCount = configMIN( xNextMessageLength, xBytesAvailable );
 5102fd4:	e1540006 	cmp	r4, r6
 5102fd8:	21a04006 	movcs	r4, r6
    if( xCount != ( size_t ) 0 )
 5102fdc:	e3540000 	cmp	r4, #0
 5102fe0:	0a000004 	beq	5102ff8 <prvReadMessageFromBuffer+0x4c>
        pxStreamBuffer->xTail = prvReadBytesFromBuffer( pxStreamBuffer, ( uint8_t * ) pvRxData, xCount, xNextTail );
 5102fe4:	e1a02004 	mov	r2, r4
 5102fe8:	e1a01007 	mov	r1, r7
 5102fec:	e1a00005 	mov	r0, r5
 5102ff0:	ebffffb2 	bl	5102ec0 <prvReadBytesFromBuffer>
 5102ff4:	e5850000 	str	r0, [r5]
}
 5102ff8:	e1a00004 	mov	r0, r4
 5102ffc:	e28dd00c 	add	sp, sp, #12
 5103000:	e8bd80f0 	pop	{r4, r5, r6, r7, pc}
        xNextTail = prvReadBytesFromBuffer( pxStreamBuffer, ( uint8_t * ) &xTempNextMessageLength, sbBYTES_TO_STORE_MESSAGE_LENGTH, xNextTail );
 5103004:	e3a02004 	mov	r2, #4
 5103008:	e08d1002 	add	r1, sp, r2
 510300c:	ebffffab 	bl	5102ec0 <prvReadBytesFromBuffer>
        xNextMessageLength = ( size_t ) xTempNextMessageLength;
 5103010:	e59d2004 	ldr	r2, [sp, #4]
        if( xNextMessageLength > xBufferLengthBytes )
 5103014:	e1560002 	cmp	r6, r2
    xCount = configMIN( xNextMessageLength, xBytesAvailable );
 5103018:	33a04000 	movcc	r4, #0
        xNextTail = prvReadBytesFromBuffer( pxStreamBuffer, ( uint8_t * ) &xTempNextMessageLength, sbBYTES_TO_STORE_MESSAGE_LENGTH, xNextTail );
 510301c:	e1a03000 	mov	r3, r0
        if( xNextMessageLength > xBufferLengthBytes )
 5103020:	3afffff4 	bcc	5102ff8 <prvReadMessageFromBuffer+0x4c>
        xBytesAvailable -= sbBYTES_TO_STORE_MESSAGE_LENGTH;
 5103024:	e1a06002 	mov	r6, r2
 5103028:	e2444004 	sub	r4, r4, #4
 510302c:	eaffffe8 	b	5102fd4 <prvReadMessageFromBuffer+0x28>

05103030 <xStreamBufferGetStaticBuffers>:
    {
 5103030:	e92d4070 	push	{r4, r5, r6, lr}
 5103034:	e1a06001 	mov	r6, r1
        configASSERT( pxStreamBuffer );
 5103038:	e2504000 	subs	r4, r0, #0
    {
 510303c:	e1a05002 	mov	r5, r2
        configASSERT( pxStreamBuffer );
 5103040:	0a00000a 	beq	5103070 <xStreamBufferGetStaticBuffers+0x40>
        configASSERT( ppucStreamBufferStorageArea );
 5103044:	e3560000 	cmp	r6, #0
 5103048:	0a000010 	beq	5103090 <xStreamBufferGetStaticBuffers+0x60>
        configASSERT( ppxStaticStreamBuffer );
 510304c:	e3550000 	cmp	r5, #0
 5103050:	0a000016 	beq	51030b0 <xStreamBufferGetStaticBuffers+0x80>
        if( ( pxStreamBuffer->ucFlags & sbFLAGS_IS_STATICALLY_ALLOCATED ) != ( uint8_t ) 0 )
 5103054:	e5d4301c 	ldrb	r3, [r4, #28]
 5103058:	e2130002 	ands	r0, r3, #2
            xReturn = pdTRUE;
 510305c:	13a00001 	movne	r0, #1
            *ppucStreamBufferStorageArea = pxStreamBuffer->pucBuffer;
 5103060:	15943018 	ldrne	r3, [r4, #24]
 5103064:	15863000 	strne	r3, [r6]
            *ppxStaticStreamBuffer = ( StaticStreamBuffer_t * ) pxStreamBuffer;
 5103068:	15854000 	strne	r4, [r5]
    }
 510306c:	e8bd8070 	pop	{r4, r5, r6, pc}
        configASSERT( pxStreamBuffer );
 5103070:	e30d0a94 	movw	r0, #55956	; 0xda94
 5103074:	e3003900 	movw	r3, #2304	; 0x900
 5103078:	e3a01f85 	mov	r1, #532	; 0x214
 510307c:	e3400512 	movt	r0, #1298	; 0x512
 5103080:	e3403511 	movt	r3, #1297	; 0x511
 5103084:	e12fff33 	blx	r3
        configASSERT( ppucStreamBufferStorageArea );
 5103088:	e3560000 	cmp	r6, #0
 510308c:	1affffee 	bne	510304c <xStreamBufferGetStaticBuffers+0x1c>
 5103090:	e30d0a94 	movw	r0, #55956	; 0xda94
 5103094:	e3003900 	movw	r3, #2304	; 0x900
 5103098:	e3001215 	movw	r1, #533	; 0x215
 510309c:	e3400512 	movt	r0, #1298	; 0x512
 51030a0:	e3403511 	movt	r3, #1297	; 0x511
 51030a4:	e12fff33 	blx	r3
        configASSERT( ppxStaticStreamBuffer );
 51030a8:	e3550000 	cmp	r5, #0
 51030ac:	1affffe8 	bne	5103054 <xStreamBufferGetStaticBuffers+0x24>
 51030b0:	e30d0a94 	movw	r0, #55956	; 0xda94
 51030b4:	e3003900 	movw	r3, #2304	; 0x900
 51030b8:	e3001216 	movw	r1, #534	; 0x216
 51030bc:	e3403511 	movt	r3, #1297	; 0x511
 51030c0:	e3400512 	movt	r0, #1298	; 0x512
 51030c4:	e12fff33 	blx	r3
 51030c8:	eaffffe1 	b	5103054 <xStreamBufferGetStaticBuffers+0x24>

051030cc <xStreamBufferSend>:
{
 51030cc:	e92d4ff0 	push	{r4, r5, r6, r7, r8, r9, sl, fp, lr}
 51030d0:	ed2d8b02 	vpush	{d8}
 51030d4:	e1a04000 	mov	r4, r0
    configASSERT( pvTxData );
 51030d8:	e3510000 	cmp	r1, #0
 51030dc:	ee081a10 	vmov	s16, r1
{
 51030e0:	e24dd024 	sub	sp, sp, #36	; 0x24
 51030e4:	e58d200c 	str	r2, [sp, #12]
 51030e8:	e58d3014 	str	r3, [sp, #20]
    configASSERT( pvTxData );
 51030ec:	0a00009e 	beq	510336c <xStreamBufferSend+0x2a0>
    configASSERT( pxStreamBuffer );
 51030f0:	e3540000 	cmp	r4, #0
 51030f4:	0a0000a4 	beq	510338c <xStreamBufferSend+0x2c0>
    if( ( pxStreamBuffer->ucFlags & sbFLAGS_IS_MESSAGE_BUFFER ) != ( uint8_t ) 0 )
 51030f8:	e5d4301c 	ldrb	r3, [r4, #28]
    xMaxReportedSpace = pxStreamBuffer->xLength - ( size_t ) 1;
 51030fc:	e5945008 	ldr	r5, [r4, #8]
    if( ( pxStreamBuffer->ucFlags & sbFLAGS_IS_MESSAGE_BUFFER ) != ( uint8_t ) 0 )
 5103100:	e3130001 	tst	r3, #1
        xRequiredSpace += sbBYTES_TO_STORE_MESSAGE_LENGTH;
 5103104:	e59d300c 	ldr	r3, [sp, #12]
    xMaxReportedSpace = pxStreamBuffer->xLength - ( size_t ) 1;
 5103108:	e2455001 	sub	r5, r5, #1
    if( ( pxStreamBuffer->ucFlags & sbFLAGS_IS_MESSAGE_BUFFER ) != ( uint8_t ) 0 )
 510310c:	0a00006c 	beq	51032c4 <xStreamBufferSend+0x1f8>
        xRequiredSpace += sbBYTES_TO_STORE_MESSAGE_LENGTH;
 5103110:	e2837004 	add	r7, r3, #4
        configASSERT( xRequiredSpace > xDataLengthBytes );
 5103114:	e1530007 	cmp	r3, r7
 5103118:	2a000088 	bcs	5103340 <xStreamBufferSend+0x274>
        if( xRequiredSpace > xMaxReportedSpace )
 510311c:	e1550007 	cmp	r5, r7
            xTicksToWait = ( TickType_t ) 0;
 5103120:	33a03000 	movcc	r3, #0
 5103124:	358d3014 	strcc	r3, [sp, #20]
        if( xRequiredSpace > xMaxReportedSpace )
 5103128:	3a000043 	bcc	510323c <xStreamBufferSend+0x170>
    if( xTicksToWait != ( TickType_t ) 0 )
 510312c:	e59d3014 	ldr	r3, [sp, #20]
 5103130:	e3530000 	cmp	r3, #0
 5103134:	0a000040 	beq	510323c <xStreamBufferSend+0x170>
        vTaskSetTimeOutState( &xTimeOut );
 5103138:	e3053b34 	movw	r3, #23348	; 0x5b34
 510313c:	e28d0018 	add	r0, sp, #24
 5103140:	e30c9930 	movw	r9, #51504	; 0xc930
 5103144:	e3403510 	movt	r3, #1296	; 0x510
 5103148:	e12fff33 	blx	r3
 510314c:	e30c8988 	movw	r8, #51592	; 0xc988
                    ( void ) xTaskNotifyStateClearIndexed( NULL, pxStreamBuffer->uxNotificationIndex );
 5103150:	e305aa30 	movw	sl, #23088	; 0x5a30
                    configASSERT( pxStreamBuffer->xTaskWaitingToSend == NULL );
 5103154:	e30dba94 	movw	fp, #55956	; 0xda94
 5103158:	e3003900 	movw	r3, #2304	; 0x900
 510315c:	e3409510 	movt	r9, #1296	; 0x510
 5103160:	e3403511 	movt	r3, #1297	; 0x511
 5103164:	e3408510 	movt	r8, #1296	; 0x510
                    ( void ) xTaskNotifyStateClearIndexed( NULL, pxStreamBuffer->uxNotificationIndex );
 5103168:	e340a510 	movt	sl, #1296	; 0x510
                    configASSERT( pxStreamBuffer->xTaskWaitingToSend == NULL );
 510316c:	e58d3010 	str	r3, [sp, #16]
 5103170:	e340b512 	movt	fp, #1298	; 0x512
            taskENTER_CRITICAL();
 5103174:	e12fff39 	blx	r9
        xSpace = pxStreamBuffer->xLength + pxStreamBuffer->xTail;
 5103178:	e594c008 	ldr	ip, [r4, #8]
        xOriginalTail = pxStreamBuffer->xTail;
 510317c:	e5942000 	ldr	r2, [r4]
        xSpace = pxStreamBuffer->xLength + pxStreamBuffer->xTail;
 5103180:	e5940000 	ldr	r0, [r4]
        xSpace -= pxStreamBuffer->xHead;
 5103184:	e5941004 	ldr	r1, [r4, #4]
    } while( xOriginalTail != pxStreamBuffer->xTail );
 5103188:	e5943000 	ldr	r3, [r4]
 510318c:	e1520003 	cmp	r2, r3
 5103190:	1afffff9 	bne	510317c <xStreamBufferSend+0xb0>
    xSpace -= ( size_t ) 1;
 5103194:	e24c5001 	sub	r5, ip, #1
 5103198:	e0855000 	add	r5, r5, r0
 510319c:	e0455001 	sub	r5, r5, r1
    if( xSpace >= pxStreamBuffer->xLength )
 51031a0:	e15c0005 	cmp	ip, r5
        xSpace -= pxStreamBuffer->xLength;
 51031a4:	9045500c 	subls	r5, r5, ip
                if( xSpace < xRequiredSpace )
 51031a8:	e1570005 	cmp	r7, r5
 51031ac:	9a000048 	bls	51032d4 <xStreamBufferSend+0x208>
                    ( void ) xTaskNotifyStateClearIndexed( NULL, pxStreamBuffer->uxNotificationIndex );
 51031b0:	e5941020 	ldr	r1, [r4, #32]
 51031b4:	e3a00000 	mov	r0, #0
 51031b8:	e12fff3a 	blx	sl
                    configASSERT( pxStreamBuffer->xTaskWaitingToSend == NULL );
 51031bc:	e5943014 	ldr	r3, [r4, #20]
 51031c0:	e3530000 	cmp	r3, #0
 51031c4:	0a000003 	beq	51031d8 <xStreamBufferSend+0x10c>
 51031c8:	e59d3010 	ldr	r3, [sp, #16]
 51031cc:	e3001375 	movw	r1, #885	; 0x375
 51031d0:	e1a0000b 	mov	r0, fp
 51031d4:	e12fff33 	blx	r3
                    pxStreamBuffer->xTaskWaitingToSend = xTaskGetCurrentTaskHandle();
 51031d8:	e3063dec 	movw	r3, #28140	; 0x6dec
            ( void ) xTaskNotifyWaitIndexed( pxStreamBuffer->uxNotificationIndex, ( uint32_t ) 0, ( uint32_t ) 0, NULL, xTicksToWait );
 51031dc:	e3066450 	movw	r6, #25680	; 0x6450
                    pxStreamBuffer->xTaskWaitingToSend = xTaskGetCurrentTaskHandle();
 51031e0:	e3403510 	movt	r3, #1296	; 0x510
 51031e4:	e12fff33 	blx	r3
            ( void ) xTaskNotifyWaitIndexed( pxStreamBuffer->uxNotificationIndex, ( uint32_t ) 0, ( uint32_t ) 0, NULL, xTicksToWait );
 51031e8:	e3406510 	movt	r6, #1296	; 0x510
                    pxStreamBuffer->xTaskWaitingToSend = xTaskGetCurrentTaskHandle();
 51031ec:	e5840014 	str	r0, [r4, #20]
            taskEXIT_CRITICAL();
 51031f0:	e12fff38 	blx	r8
            ( void ) xTaskNotifyWaitIndexed( pxStreamBuffer->uxNotificationIndex, ( uint32_t ) 0, ( uint32_t ) 0, NULL, xTicksToWait );
 51031f4:	e59d3014 	ldr	r3, [sp, #20]
 51031f8:	e58d3000 	str	r3, [sp]
 51031fc:	e3a03000 	mov	r3, #0
 5103200:	e1a01003 	mov	r1, r3
 5103204:	e1a02003 	mov	r2, r3
 5103208:	e5940020 	ldr	r0, [r4, #32]
 510320c:	e12fff36 	blx	r6
            pxStreamBuffer->xTaskWaitingToSend = NULL;
 5103210:	e3a03000 	mov	r3, #0
        } while( xTaskCheckForTimeOut( &xTimeOut, &xTicksToWait ) == pdFALSE );
 5103214:	e28d1014 	add	r1, sp, #20
            pxStreamBuffer->xTaskWaitingToSend = NULL;
 5103218:	e5843014 	str	r3, [r4, #20]
        } while( xTaskCheckForTimeOut( &xTimeOut, &xTicksToWait ) == pdFALSE );
 510321c:	e3053b8c 	movw	r3, #23436	; 0x5b8c
 5103220:	e3403510 	movt	r3, #1296	; 0x510
 5103224:	e28d0018 	add	r0, sp, #24
 5103228:	e12fff33 	blx	r3
 510322c:	e3500000 	cmp	r0, #0
 5103230:	0affffcf 	beq	5103174 <xStreamBufferSend+0xa8>
    if( xSpace == ( size_t ) 0 )
 5103234:	e3550000 	cmp	r5, #0
 5103238:	1a00000b 	bne	510326c <xStreamBufferSend+0x1a0>
        xSpace = pxStreamBuffer->xLength + pxStreamBuffer->xTail;
 510323c:	e594c008 	ldr	ip, [r4, #8]
        xOriginalTail = pxStreamBuffer->xTail;
 5103240:	e5942000 	ldr	r2, [r4]
        xSpace = pxStreamBuffer->xLength + pxStreamBuffer->xTail;
 5103244:	e5940000 	ldr	r0, [r4]
        xSpace -= pxStreamBuffer->xHead;
 5103248:	e5941004 	ldr	r1, [r4, #4]
    } while( xOriginalTail != pxStreamBuffer->xTail );
 510324c:	e5943000 	ldr	r3, [r4]
 5103250:	e1520003 	cmp	r2, r3
 5103254:	1afffff9 	bne	5103240 <xStreamBufferSend+0x174>
    xSpace -= ( size_t ) 1;
 5103258:	e24c5001 	sub	r5, ip, #1
 510325c:	e0855000 	add	r5, r5, r0
 5103260:	e0455001 	sub	r5, r5, r1
    if( xSpace >= pxStreamBuffer->xLength )
 5103264:	e15c0005 	cmp	ip, r5
        xSpace -= pxStreamBuffer->xLength;
 5103268:	9045500c 	subls	r5, r5, ip
    xReturn = prvWriteMessageToBuffer( pxStreamBuffer, pvTxData, xDataLengthBytes, xSpace, xRequiredSpace );
 510326c:	e1a03005 	mov	r3, r5
 5103270:	ee181a10 	vmov	r1, s16
 5103274:	e59d200c 	ldr	r2, [sp, #12]
 5103278:	e1a00004 	mov	r0, r4
 510327c:	e58d7000 	str	r7, [sp]
 5103280:	ebfffee9 	bl	5102e2c <prvWriteMessageToBuffer>
    if( xReturn > ( size_t ) 0 )
 5103284:	e2505000 	subs	r5, r0, #0
 5103288:	0a000009 	beq	51032b4 <xStreamBufferSend+0x1e8>
static size_t prvBytesInBuffer( const StreamBuffer_t * const pxStreamBuffer )
{
    /* Returns the distance between xTail and xHead. */
    size_t xCount;

    xCount = pxStreamBuffer->xLength + pxStreamBuffer->xHead;
 510328c:	e5942008 	ldr	r2, [r4, #8]
 5103290:	e5943004 	ldr	r3, [r4, #4]
    xCount -= pxStreamBuffer->xTail;
 5103294:	e5941000 	ldr	r1, [r4]
    xCount = pxStreamBuffer->xLength + pxStreamBuffer->xHead;
 5103298:	e0823003 	add	r3, r2, r3
    xCount -= pxStreamBuffer->xTail;
 510329c:	e0433001 	sub	r3, r3, r1

    if( xCount >= pxStreamBuffer->xLength )
 51032a0:	e1520003 	cmp	r2, r3
    {
        xCount -= pxStreamBuffer->xLength;
 51032a4:	90433002 	subls	r3, r3, r2
        if( prvBytesInBuffer( pxStreamBuffer ) >= pxStreamBuffer->xTriggerLevelBytes )
 51032a8:	e594200c 	ldr	r2, [r4, #12]
 51032ac:	e1520003 	cmp	r2, r3
 51032b0:	9a00000b 	bls	51032e4 <xStreamBufferSend+0x218>
}
 51032b4:	e1a00005 	mov	r0, r5
 51032b8:	e28dd024 	add	sp, sp, #36	; 0x24
 51032bc:	ecbd8b02 	vpop	{d8}
 51032c0:	e8bd8ff0 	pop	{r4, r5, r6, r7, r8, r9, sl, fp, pc}
        if( xRequiredSpace > xMaxReportedSpace )
 51032c4:	e1530005 	cmp	r3, r5
 51032c8:	31a07003 	movcc	r7, r3
 51032cc:	21a07005 	movcs	r7, r5
 51032d0:	eaffff95 	b	510312c <xStreamBufferSend+0x60>
                    taskEXIT_CRITICAL();
 51032d4:	e12fff38 	blx	r8
    if( xSpace == ( size_t ) 0 )
 51032d8:	e3550000 	cmp	r5, #0
 51032dc:	0affffd6 	beq	510323c <xStreamBufferSend+0x170>
 51032e0:	eaffffe1 	b	510326c <xStreamBufferSend+0x1a0>
            prvSEND_COMPLETED( pxStreamBuffer );
 51032e4:	e30532a0 	movw	r3, #21152	; 0x52a0
 51032e8:	e3403510 	movt	r3, #1296	; 0x510
 51032ec:	e12fff33 	blx	r3
 51032f0:	e5943010 	ldr	r3, [r4, #16]
 51032f4:	e3530000 	cmp	r3, #0
 51032f8:	0a000009 	beq	5103324 <xStreamBufferSend+0x258>
 51032fc:	e3a06000 	mov	r6, #0
 5103300:	e3057414 	movw	r7, #21524	; 0x5414
 5103304:	e5940010 	ldr	r0, [r4, #16]
 5103308:	e1a03006 	mov	r3, r6
 510330c:	e58d6000 	str	r6, [sp]
 5103310:	e3407510 	movt	r7, #1296	; 0x510
 5103314:	e5941020 	ldr	r1, [r4, #32]
 5103318:	e1a02006 	mov	r2, r6
 510331c:	e12fff37 	blx	r7
 5103320:	e5846010 	str	r6, [r4, #16]
 5103324:	e3053efc 	movw	r3, #24316	; 0x5efc
 5103328:	e3403510 	movt	r3, #1296	; 0x510
 510332c:	e12fff33 	blx	r3
}
 5103330:	e1a00005 	mov	r0, r5
 5103334:	e28dd024 	add	sp, sp, #36	; 0x24
 5103338:	ecbd8b02 	vpop	{d8}
 510333c:	e8bd8ff0 	pop	{r4, r5, r6, r7, r8, r9, sl, fp, pc}
        configASSERT( xRequiredSpace > xDataLengthBytes );
 5103340:	e30d0a94 	movw	r0, #55956	; 0xda94
 5103344:	e3003900 	movw	r3, #2304	; 0x900
 5103348:	e3403511 	movt	r3, #1297	; 0x511
 510334c:	e3001345 	movw	r1, #837	; 0x345
 5103350:	e3400512 	movt	r0, #1298	; 0x512
 5103354:	e12fff33 	blx	r3
        if( xRequiredSpace > xMaxReportedSpace )
 5103358:	e1550007 	cmp	r5, r7
            xTicksToWait = ( TickType_t ) 0;
 510335c:	33a03000 	movcc	r3, #0
 5103360:	358d3014 	strcc	r3, [sp, #20]
        if( xRequiredSpace > xMaxReportedSpace )
 5103364:	3affffb4 	bcc	510323c <xStreamBufferSend+0x170>
 5103368:	eaffff6f 	b	510312c <xStreamBufferSend+0x60>
    configASSERT( pvTxData );
 510336c:	e30d0a94 	movw	r0, #55956	; 0xda94
 5103370:	e3003900 	movw	r3, #2304	; 0x900
 5103374:	e3001335 	movw	r1, #821	; 0x335
 5103378:	e3400512 	movt	r0, #1298	; 0x512
 510337c:	e3403511 	movt	r3, #1297	; 0x511
 5103380:	e12fff33 	blx	r3
    configASSERT( pxStreamBuffer );
 5103384:	e3540000 	cmp	r4, #0
 5103388:	1affff5a 	bne	51030f8 <xStreamBufferSend+0x2c>
 510338c:	e30d0a94 	movw	r0, #55956	; 0xda94
 5103390:	e3003900 	movw	r3, #2304	; 0x900
 5103394:	e3001336 	movw	r1, #822	; 0x336
 5103398:	e3403511 	movt	r3, #1297	; 0x511
 510339c:	e3400512 	movt	r0, #1298	; 0x512
 51033a0:	e12fff33 	blx	r3
 51033a4:	eaffff53 	b	51030f8 <xStreamBufferSend+0x2c>

051033a8 <xStreamBufferSendFromISR>:
{
 51033a8:	e92d43f0 	push	{r4, r5, r6, r7, r8, r9, lr}
 51033ac:	e1a04000 	mov	r4, r0
    configASSERT( pvTxData );
 51033b0:	e2516000 	subs	r6, r1, #0
{
 51033b4:	e1a09002 	mov	r9, r2
 51033b8:	e24dd00c 	sub	sp, sp, #12
 51033bc:	e1a07003 	mov	r7, r3
    configASSERT( pvTxData );
 51033c0:	0a000033 	beq	5103494 <xStreamBufferSendFromISR+0xec>
    configASSERT( pxStreamBuffer );
 51033c4:	e3540000 	cmp	r4, #0
 51033c8:	0a000039 	beq	51034b4 <xStreamBufferSendFromISR+0x10c>
    if( ( pxStreamBuffer->ucFlags & sbFLAGS_IS_MESSAGE_BUFFER ) != ( uint8_t ) 0 )
 51033cc:	e5d4301c 	ldrb	r3, [r4, #28]
 51033d0:	e3130001 	tst	r3, #1
        xRequiredSpace += sbBYTES_TO_STORE_MESSAGE_LENGTH;
 51033d4:	12898004 	addne	r8, r9, #4
    size_t xRequiredSpace = xDataLengthBytes;
 51033d8:	01a08009 	moveq	r8, r9
        xSpace = pxStreamBuffer->xLength + pxStreamBuffer->xTail;
 51033dc:	e5941008 	ldr	r1, [r4, #8]
        xOriginalTail = pxStreamBuffer->xTail;
 51033e0:	e594c000 	ldr	ip, [r4]
        xSpace = pxStreamBuffer->xLength + pxStreamBuffer->xTail;
 51033e4:	e5945000 	ldr	r5, [r4]
        xSpace -= pxStreamBuffer->xHead;
 51033e8:	e594e004 	ldr	lr, [r4, #4]
    } while( xOriginalTail != pxStreamBuffer->xTail );
 51033ec:	e5940000 	ldr	r0, [r4]
 51033f0:	e15c0000 	cmp	ip, r0
 51033f4:	1afffff9 	bne	51033e0 <xStreamBufferSendFromISR+0x38>
    xReturn = prvWriteMessageToBuffer( pxStreamBuffer, pvTxData, xDataLengthBytes, xSpace, xRequiredSpace );
 51033f8:	e1a02009 	mov	r2, r9
    xSpace -= ( size_t ) 1;
 51033fc:	e2413001 	sub	r3, r1, #1
    xReturn = prvWriteMessageToBuffer( pxStreamBuffer, pvTxData, xDataLengthBytes, xSpace, xRequiredSpace );
 5103400:	e1a00004 	mov	r0, r4
    xSpace -= ( size_t ) 1;
 5103404:	e0833005 	add	r3, r3, r5
    xReturn = prvWriteMessageToBuffer( pxStreamBuffer, pvTxData, xDataLengthBytes, xSpace, xRequiredSpace );
 5103408:	e58d8000 	str	r8, [sp]
    xSpace -= ( size_t ) 1;
 510340c:	e043300e 	sub	r3, r3, lr
    if( xSpace >= pxStreamBuffer->xLength )
 5103410:	e1510003 	cmp	r1, r3
        xSpace -= pxStreamBuffer->xLength;
 5103414:	90433001 	subls	r3, r3, r1
    xReturn = prvWriteMessageToBuffer( pxStreamBuffer, pvTxData, xDataLengthBytes, xSpace, xRequiredSpace );
 5103418:	e1a01006 	mov	r1, r6
 510341c:	ebfffe82 	bl	5102e2c <prvWriteMessageToBuffer>
    if( xReturn > ( size_t ) 0 )
 5103420:	e2505000 	subs	r5, r0, #0
 5103424:	0a000017 	beq	5103488 <xStreamBufferSendFromISR+0xe0>
    xCount = pxStreamBuffer->xLength + pxStreamBuffer->xHead;
 5103428:	e5942008 	ldr	r2, [r4, #8]
 510342c:	e5943004 	ldr	r3, [r4, #4]
    xCount -= pxStreamBuffer->xTail;
 5103430:	e5941000 	ldr	r1, [r4]
    xCount = pxStreamBuffer->xLength + pxStreamBuffer->xHead;
 5103434:	e0823003 	add	r3, r2, r3
    xCount -= pxStreamBuffer->xTail;
 5103438:	e0433001 	sub	r3, r3, r1
    if( xCount >= pxStreamBuffer->xLength )
 510343c:	e1520003 	cmp	r2, r3
        xCount -= pxStreamBuffer->xLength;
 5103440:	90433002 	subls	r3, r3, r2
        if( prvBytesInBuffer( pxStreamBuffer ) >= pxStreamBuffer->xTriggerLevelBytes )
 5103444:	e594200c 	ldr	r2, [r4, #12]
 5103448:	e1520003 	cmp	r2, r3
 510344c:	8a00000d 	bhi	5103488 <xStreamBufferSendFromISR+0xe0>
            prvSEND_COMPLETE_FROM_ISR( pxStreamBuffer, pxHigherPriorityTaskWoken );
 5103450:	e5943010 	ldr	r3, [r4, #16]
 5103454:	e3530000 	cmp	r3, #0
 5103458:	0a00000a 	beq	5103488 <xStreamBufferSendFromISR+0xe0>
 510345c:	e5940010 	ldr	r0, [r4, #16]
 5103460:	e3a06000 	mov	r6, #0
 5103464:	e58d7004 	str	r7, [sp, #4]
 5103468:	e3057640 	movw	r7, #22080	; 0x5640
 510346c:	e58d6000 	str	r6, [sp]
 5103470:	e1a03006 	mov	r3, r6
 5103474:	e5941020 	ldr	r1, [r4, #32]
 5103478:	e3407510 	movt	r7, #1296	; 0x510
 510347c:	e1a02006 	mov	r2, r6
 5103480:	e12fff37 	blx	r7
 5103484:	e5846010 	str	r6, [r4, #16]
}
 5103488:	e1a00005 	mov	r0, r5
 510348c:	e28dd00c 	add	sp, sp, #12
 5103490:	e8bd83f0 	pop	{r4, r5, r6, r7, r8, r9, pc}
    configASSERT( pvTxData );
 5103494:	e30d0a94 	movw	r0, #55956	; 0xda94
 5103498:	e3003900 	movw	r3, #2304	; 0x900
 510349c:	e30013ba 	movw	r1, #954	; 0x3ba
 51034a0:	e3400512 	movt	r0, #1298	; 0x512
 51034a4:	e3403511 	movt	r3, #1297	; 0x511
 51034a8:	e12fff33 	blx	r3
    configASSERT( pxStreamBuffer );
 51034ac:	e3540000 	cmp	r4, #0
 51034b0:	1affffc5 	bne	51033cc <xStreamBufferSendFromISR+0x24>
 51034b4:	e30d0a94 	movw	r0, #55956	; 0xda94
 51034b8:	e3003900 	movw	r3, #2304	; 0x900
 51034bc:	e30013bb 	movw	r1, #955	; 0x3bb
 51034c0:	e3403511 	movt	r3, #1297	; 0x511
 51034c4:	e3400512 	movt	r0, #1298	; 0x512
 51034c8:	e12fff33 	blx	r3
 51034cc:	eaffffbe 	b	51033cc <xStreamBufferSendFromISR+0x24>

051034d0 <xStreamBufferReceive>:
{
 51034d0:	e92d43f0 	push	{r4, r5, r6, r7, r8, r9, lr}
 51034d4:	e1a04000 	mov	r4, r0
    configASSERT( pvRxData );
 51034d8:	e2517000 	subs	r7, r1, #0
{
 51034dc:	e1a08002 	mov	r8, r2
 51034e0:	e24dd00c 	sub	sp, sp, #12
 51034e4:	e1a09003 	mov	r9, r3
    configASSERT( pvRxData );
 51034e8:	0a000042 	beq	51035f8 <xStreamBufferReceive+0x128>
    configASSERT( pxStreamBuffer );
 51034ec:	e3540000 	cmp	r4, #0
 51034f0:	0a000048 	beq	5103618 <xStreamBufferReceive+0x148>
    if( ( pxStreamBuffer->ucFlags & sbFLAGS_IS_MESSAGE_BUFFER ) != ( uint8_t ) 0 )
 51034f4:	e5d4601c 	ldrb	r6, [r4, #28]
 51034f8:	e3160001 	tst	r6, #1
        xBytesToStoreMessageLength = sbBYTES_TO_STORE_MESSAGE_LENGTH;
 51034fc:	13a06004 	movne	r6, #4
    if( ( pxStreamBuffer->ucFlags & sbFLAGS_IS_MESSAGE_BUFFER ) != ( uint8_t ) 0 )
 5103500:	1a000001 	bne	510350c <xStreamBufferReceive+0x3c>
    else if( ( pxStreamBuffer->ucFlags & sbFLAGS_IS_BATCHING_BUFFER ) != ( uint8_t ) 0 )
 5103504:	e2166004 	ands	r6, r6, #4
        xBytesToStoreMessageLength = pxStreamBuffer->xTriggerLevelBytes;
 5103508:	1594600c 	ldrne	r6, [r4, #12]
    if( xTicksToWait != ( TickType_t ) 0 )
 510350c:	e3590000 	cmp	r9, #0
 5103510:	1a00000c 	bne	5103548 <xStreamBufferReceive+0x78>
    xCount = pxStreamBuffer->xLength + pxStreamBuffer->xHead;
 5103514:	e5943008 	ldr	r3, [r4, #8]
 5103518:	e5945004 	ldr	r5, [r4, #4]
    xCount -= pxStreamBuffer->xTail;
 510351c:	e5942000 	ldr	r2, [r4]
    xCount = pxStreamBuffer->xLength + pxStreamBuffer->xHead;
 5103520:	e0835005 	add	r5, r3, r5
    xCount -= pxStreamBuffer->xTail;
 5103524:	e0455002 	sub	r5, r5, r2
    if( xCount >= pxStreamBuffer->xLength )
 5103528:	e1530005 	cmp	r3, r5
        xCount -= pxStreamBuffer->xLength;
 510352c:	90455003 	subls	r5, r5, r3
    if( xBytesAvailable > xBytesToStoreMessageLength )
 5103530:	e1550006 	cmp	r5, r6
 5103534:	8a000012 	bhi	5103584 <xStreamBufferReceive+0xb4>
    size_t xReceivedLength = 0, xBytesAvailable, xBytesToStoreMessageLength;
 5103538:	e3a05000 	mov	r5, #0
}
 510353c:	e1a00005 	mov	r0, r5
 5103540:	e28dd00c 	add	sp, sp, #12
 5103544:	e8bd83f0 	pop	{r4, r5, r6, r7, r8, r9, pc}
        taskENTER_CRITICAL();
 5103548:	e30c3930 	movw	r3, #51504	; 0xc930
 510354c:	e3403510 	movt	r3, #1296	; 0x510
 5103550:	e12fff33 	blx	r3
    xCount = pxStreamBuffer->xLength + pxStreamBuffer->xHead;
 5103554:	e5943008 	ldr	r3, [r4, #8]
 5103558:	e5945004 	ldr	r5, [r4, #4]
    xCount -= pxStreamBuffer->xTail;
 510355c:	e5942000 	ldr	r2, [r4]
    xCount = pxStreamBuffer->xLength + pxStreamBuffer->xHead;
 5103560:	e0835005 	add	r5, r3, r5
    xCount -= pxStreamBuffer->xTail;
 5103564:	e0455002 	sub	r5, r5, r2
    if( xCount >= pxStreamBuffer->xLength )
 5103568:	e1530005 	cmp	r3, r5
        xCount -= pxStreamBuffer->xLength;
 510356c:	90455003 	subls	r5, r5, r3
            if( xBytesAvailable <= xBytesToStoreMessageLength )
 5103570:	e1560005 	cmp	r6, r5
 5103574:	2a00002e 	bcs	5103634 <xStreamBufferReceive+0x164>
        taskEXIT_CRITICAL();
 5103578:	e30c3988 	movw	r3, #51592	; 0xc988
 510357c:	e3403510 	movt	r3, #1296	; 0x510
 5103580:	e12fff33 	blx	r3
        xReceivedLength = prvReadMessageFromBuffer( pxStreamBuffer, pvRxData, xBufferLengthBytes, xBytesAvailable );
 5103584:	e1a03005 	mov	r3, r5
 5103588:	e1a02008 	mov	r2, r8
 510358c:	e1a01007 	mov	r1, r7
 5103590:	e1a00004 	mov	r0, r4
 5103594:	ebfffe84 	bl	5102fac <prvReadMessageFromBuffer>
        if( xReceivedLength != ( size_t ) 0 )
 5103598:	e2505000 	subs	r5, r0, #0
 510359c:	0affffe5 	beq	5103538 <xStreamBufferReceive+0x68>
            prvRECEIVE_COMPLETED( xStreamBuffer );
 51035a0:	e30532a0 	movw	r3, #21152	; 0x52a0
 51035a4:	e3403510 	movt	r3, #1296	; 0x510
 51035a8:	e12fff33 	blx	r3
 51035ac:	e5943014 	ldr	r3, [r4, #20]
 51035b0:	e3530000 	cmp	r3, #0
 51035b4:	0a000009 	beq	51035e0 <xStreamBufferReceive+0x110>
 51035b8:	e3a06000 	mov	r6, #0
 51035bc:	e3057414 	movw	r7, #21524	; 0x5414
 51035c0:	e5940014 	ldr	r0, [r4, #20]
 51035c4:	e1a03006 	mov	r3, r6
 51035c8:	e58d6000 	str	r6, [sp]
 51035cc:	e3407510 	movt	r7, #1296	; 0x510
 51035d0:	e5941020 	ldr	r1, [r4, #32]
 51035d4:	e1a02006 	mov	r2, r6
 51035d8:	e12fff37 	blx	r7
 51035dc:	e5846014 	str	r6, [r4, #20]
 51035e0:	e3053efc 	movw	r3, #24316	; 0x5efc
 51035e4:	e3403510 	movt	r3, #1296	; 0x510
 51035e8:	e12fff33 	blx	r3
}
 51035ec:	e1a00005 	mov	r0, r5
 51035f0:	e28dd00c 	add	sp, sp, #12
 51035f4:	e8bd83f0 	pop	{r4, r5, r6, r7, r8, r9, pc}
    configASSERT( pvRxData );
 51035f8:	e30d0a94 	movw	r0, #55956	; 0xda94
 51035fc:	e3003900 	movw	r3, #2304	; 0x900
 5103600:	e3001427 	movw	r1, #1063	; 0x427
 5103604:	e3400512 	movt	r0, #1298	; 0x512
 5103608:	e3403511 	movt	r3, #1297	; 0x511
 510360c:	e12fff33 	blx	r3
    configASSERT( pxStreamBuffer );
 5103610:	e3540000 	cmp	r4, #0
 5103614:	1affffb6 	bne	51034f4 <xStreamBufferReceive+0x24>
 5103618:	e30d0a94 	movw	r0, #55956	; 0xda94
 510361c:	e3003900 	movw	r3, #2304	; 0x900
 5103620:	e3001428 	movw	r1, #1064	; 0x428
 5103624:	e3403511 	movt	r3, #1297	; 0x511
 5103628:	e3400512 	movt	r0, #1298	; 0x512
 510362c:	e12fff33 	blx	r3
 5103630:	eaffffaf 	b	51034f4 <xStreamBufferReceive+0x24>
                ( void ) xTaskNotifyStateClearIndexed( NULL, pxStreamBuffer->uxNotificationIndex );
 5103634:	e3053a30 	movw	r3, #23088	; 0x5a30
 5103638:	e3a00000 	mov	r0, #0
 510363c:	e5941020 	ldr	r1, [r4, #32]
 5103640:	e3403510 	movt	r3, #1296	; 0x510
 5103644:	e12fff33 	blx	r3
                configASSERT( pxStreamBuffer->xTaskWaitingToReceive == NULL );
 5103648:	e5943010 	ldr	r3, [r4, #16]
 510364c:	e3530000 	cmp	r3, #0
 5103650:	0a000005 	beq	510366c <xStreamBufferReceive+0x19c>
 5103654:	e30d0a94 	movw	r0, #55956	; 0xda94
 5103658:	e3003900 	movw	r3, #2304	; 0x900
 510365c:	e3400512 	movt	r0, #1298	; 0x512
 5103660:	e3001453 	movw	r1, #1107	; 0x453
 5103664:	e3403511 	movt	r3, #1297	; 0x511
 5103668:	e12fff33 	blx	r3
                pxStreamBuffer->xTaskWaitingToReceive = xTaskGetCurrentTaskHandle();
 510366c:	e3063dec 	movw	r3, #28140	; 0x6dec
            ( void ) xTaskNotifyWaitIndexed( pxStreamBuffer->uxNotificationIndex, ( uint32_t ) 0, ( uint32_t ) 0, NULL, xTicksToWait );
 5103670:	e3065450 	movw	r5, #25680	; 0x6450
                pxStreamBuffer->xTaskWaitingToReceive = xTaskGetCurrentTaskHandle();
 5103674:	e3403510 	movt	r3, #1296	; 0x510
 5103678:	e12fff33 	blx	r3
        taskEXIT_CRITICAL();
 510367c:	e30c3988 	movw	r3, #51592	; 0xc988
 5103680:	e3403510 	movt	r3, #1296	; 0x510
            ( void ) xTaskNotifyWaitIndexed( pxStreamBuffer->uxNotificationIndex, ( uint32_t ) 0, ( uint32_t ) 0, NULL, xTicksToWait );
 5103684:	e3405510 	movt	r5, #1296	; 0x510
                pxStreamBuffer->xTaskWaitingToReceive = xTaskGetCurrentTaskHandle();
 5103688:	e5840010 	str	r0, [r4, #16]
        taskEXIT_CRITICAL();
 510368c:	e12fff33 	blx	r3
            ( void ) xTaskNotifyWaitIndexed( pxStreamBuffer->uxNotificationIndex, ( uint32_t ) 0, ( uint32_t ) 0, NULL, xTicksToWait );
 5103690:	e58d9000 	str	r9, [sp]
 5103694:	e5940020 	ldr	r0, [r4, #32]
 5103698:	e3a03000 	mov	r3, #0
 510369c:	e1a02003 	mov	r2, r3
 51036a0:	e1a01003 	mov	r1, r3
 51036a4:	e12fff35 	blx	r5
            pxStreamBuffer->xTaskWaitingToReceive = NULL;
 51036a8:	e3a03000 	mov	r3, #0
 51036ac:	e5843010 	str	r3, [r4, #16]
    xCount = pxStreamBuffer->xLength + pxStreamBuffer->xHead;
 51036b0:	eaffff97 	b	5103514 <xStreamBufferReceive+0x44>

051036b4 <xStreamBufferReceiveFromISR>:
{
 51036b4:	e92d40f0 	push	{r4, r5, r6, r7, lr}
 51036b8:	e1a04000 	mov	r4, r0
    configASSERT( pvRxData );
 51036bc:	e2517000 	subs	r7, r1, #0
{
 51036c0:	e1a05002 	mov	r5, r2
 51036c4:	e24dd00c 	sub	sp, sp, #12
 51036c8:	e1a06003 	mov	r6, r3
    configASSERT( pvRxData );
 51036cc:	0a000028 	beq	5103774 <xStreamBufferReceiveFromISR+0xc0>
    configASSERT( pxStreamBuffer );
 51036d0:	e3540000 	cmp	r4, #0
 51036d4:	0a00002e 	beq	5103794 <xStreamBufferReceiveFromISR+0xe0>
    xCount = pxStreamBuffer->xLength + pxStreamBuffer->xHead;
 51036d8:	e594c008 	ldr	ip, [r4, #8]
    if( ( pxStreamBuffer->ucFlags & sbFLAGS_IS_MESSAGE_BUFFER ) != ( uint8_t ) 0 )
 51036dc:	e5d4301c 	ldrb	r3, [r4, #28]
    xCount = pxStreamBuffer->xLength + pxStreamBuffer->xHead;
 51036e0:	e5940004 	ldr	r0, [r4, #4]
        xBytesToStoreMessageLength = 0;
 51036e4:	e3130001 	tst	r3, #1
    xCount -= pxStreamBuffer->xTail;
 51036e8:	e5942000 	ldr	r2, [r4]
        xBytesToStoreMessageLength = 0;
 51036ec:	13a03004 	movne	r3, #4
 51036f0:	03a03000 	moveq	r3, #0
    xCount = pxStreamBuffer->xLength + pxStreamBuffer->xHead;
 51036f4:	e08c0000 	add	r0, ip, r0
    xCount -= pxStreamBuffer->xTail;
 51036f8:	e0400002 	sub	r0, r0, r2
    if( xCount >= pxStreamBuffer->xLength )
 51036fc:	e15c0000 	cmp	ip, r0
        xCount -= pxStreamBuffer->xLength;
 5103700:	9040000c 	subls	r0, r0, ip
    if( xBytesAvailable > xBytesToStoreMessageLength )
 5103704:	e1530000 	cmp	r3, r0
 5103708:	3a000003 	bcc	510371c <xStreamBufferReceiveFromISR+0x68>
    size_t xReceivedLength = 0, xBytesAvailable, xBytesToStoreMessageLength;
 510370c:	e3a05000 	mov	r5, #0
}
 5103710:	e1a00005 	mov	r0, r5
 5103714:	e28dd00c 	add	sp, sp, #12
 5103718:	e8bd80f0 	pop	{r4, r5, r6, r7, pc}
        xReceivedLength = prvReadMessageFromBuffer( pxStreamBuffer, pvRxData, xBufferLengthBytes, xBytesAvailable );
 510371c:	e1a03000 	mov	r3, r0
 5103720:	e1a02005 	mov	r2, r5
 5103724:	e1a01007 	mov	r1, r7
 5103728:	e1a00004 	mov	r0, r4
 510372c:	ebfffe1e 	bl	5102fac <prvReadMessageFromBuffer>
        if( xReceivedLength != ( size_t ) 0 )
 5103730:	e2505000 	subs	r5, r0, #0
 5103734:	0afffff4 	beq	510370c <xStreamBufferReceiveFromISR+0x58>
            prvRECEIVE_COMPLETED_FROM_ISR( pxStreamBuffer, pxHigherPriorityTaskWoken );
 5103738:	e5943014 	ldr	r3, [r4, #20]
 510373c:	e3530000 	cmp	r3, #0
 5103740:	0afffff2 	beq	5103710 <xStreamBufferReceiveFromISR+0x5c>
 5103744:	e5940014 	ldr	r0, [r4, #20]
 5103748:	e3a07000 	mov	r7, #0
 510374c:	e58d6004 	str	r6, [sp, #4]
 5103750:	e3056640 	movw	r6, #22080	; 0x5640
 5103754:	e58d7000 	str	r7, [sp]
 5103758:	e1a03007 	mov	r3, r7
 510375c:	e5941020 	ldr	r1, [r4, #32]
 5103760:	e3406510 	movt	r6, #1296	; 0x510
 5103764:	e1a02007 	mov	r2, r7
 5103768:	e12fff36 	blx	r6
 510376c:	e5847014 	str	r7, [r4, #20]
    return xReceivedLength;
 5103770:	eaffffe6 	b	5103710 <xStreamBufferReceiveFromISR+0x5c>
    configASSERT( pvRxData );
 5103774:	e30d0a94 	movw	r0, #55956	; 0xda94
 5103778:	e3003900 	movw	r3, #2304	; 0x900
 510377c:	e30014c7 	movw	r1, #1223	; 0x4c7
 5103780:	e3400512 	movt	r0, #1298	; 0x512
 5103784:	e3403511 	movt	r3, #1297	; 0x511
 5103788:	e12fff33 	blx	r3
    configASSERT( pxStreamBuffer );
 510378c:	e3540000 	cmp	r4, #0
 5103790:	1affffd0 	bne	51036d8 <xStreamBufferReceiveFromISR+0x24>
 5103794:	e30d0a94 	movw	r0, #55956	; 0xda94
 5103798:	e3003900 	movw	r3, #2304	; 0x900
 510379c:	e30014c8 	movw	r1, #1224	; 0x4c8
 51037a0:	e3403511 	movt	r3, #1297	; 0x511
 51037a4:	e3400512 	movt	r0, #1298	; 0x512
 51037a8:	e12fff33 	blx	r3
 51037ac:	eaffffc9 	b	51036d8 <xStreamBufferReceiveFromISR+0x24>

051037b0 <vStreamBufferDelete>:
{
 51037b0:	e92d4010 	push	{r4, lr}
    configASSERT( pxStreamBuffer );
 51037b4:	e2504000 	subs	r4, r0, #0
 51037b8:	0a00000e 	beq	51037f8 <vStreamBufferDelete+0x48>
    if( ( pxStreamBuffer->ucFlags & sbFLAGS_IS_STATICALLY_ALLOCATED ) == ( uint8_t ) pdFALSE )
 51037bc:	e5d4301c 	ldrb	r3, [r4, #28]
 51037c0:	e3130002 	tst	r3, #2
 51037c4:	1a000004 	bne	51037dc <vStreamBufferDelete+0x2c>
            vPortFree( ( void * ) pxStreamBuffer );
 51037c8:	e308333c 	movw	r3, #33596	; 0x833c
 51037cc:	e1a00004 	mov	r0, r4
 51037d0:	e3403510 	movt	r3, #1296	; 0x510
 51037d4:	e12fff33 	blx	r3
 51037d8:	e8bd8010 	pop	{r4, pc}
        ( void ) memset( pxStreamBuffer, 0x00, sizeof( StreamBuffer_t ) );
 51037dc:	e3093cbb 	movw	r3, #40123	; 0x9cbb
 51037e0:	e3a02024 	mov	r2, #36	; 0x24
 51037e4:	e3a01000 	mov	r1, #0
 51037e8:	e1a00004 	mov	r0, r4
 51037ec:	e3403511 	movt	r3, #1297	; 0x511
 51037f0:	e12fff33 	blx	r3
}
 51037f4:	e8bd8010 	pop	{r4, pc}
    configASSERT( pxStreamBuffer );
 51037f8:	e30d0a94 	movw	r0, #55956	; 0xda94
 51037fc:	e3003900 	movw	r3, #2304	; 0x900
 5103800:	e3001233 	movw	r1, #563	; 0x233
 5103804:	e3403511 	movt	r3, #1297	; 0x511
 5103808:	e3400512 	movt	r0, #1298	; 0x512
 510380c:	e12fff33 	blx	r3
 5103810:	eaffffe9 	b	51037bc <vStreamBufferDelete+0xc>

05103814 <xStreamBufferIsFull>:
{
 5103814:	e92d4010 	push	{r4, lr}
    configASSERT( pxStreamBuffer );
 5103818:	e2504000 	subs	r4, r0, #0
 510381c:	0a000013 	beq	5103870 <xStreamBufferIsFull+0x5c>
    if( ( pxStreamBuffer->ucFlags & sbFLAGS_IS_MESSAGE_BUFFER ) != ( uint8_t ) 0 )
 5103820:	e5d4301c 	ldrb	r3, [r4, #28]
        xSpace = pxStreamBuffer->xLength + pxStreamBuffer->xTail;
 5103824:	e594e008 	ldr	lr, [r4, #8]
        xBytesToStoreMessageLength = 0;
 5103828:	e3130001 	tst	r3, #1
 510382c:	13a00004 	movne	r0, #4
 5103830:	03a00000 	moveq	r0, #0
        xOriginalTail = pxStreamBuffer->xTail;
 5103834:	e5942000 	ldr	r2, [r4]
        xSpace = pxStreamBuffer->xLength + pxStreamBuffer->xTail;
 5103838:	e594c000 	ldr	ip, [r4]
        xSpace -= pxStreamBuffer->xHead;
 510383c:	e5941004 	ldr	r1, [r4, #4]
    } while( xOriginalTail != pxStreamBuffer->xTail );
 5103840:	e5943000 	ldr	r3, [r4]
 5103844:	e1520003 	cmp	r2, r3
 5103848:	1afffff9 	bne	5103834 <xStreamBufferIsFull+0x20>
    xSpace -= ( size_t ) 1;
 510384c:	e24e3001 	sub	r3, lr, #1
 5103850:	e083c00c 	add	ip, r3, ip
 5103854:	e04c1001 	sub	r1, ip, r1
    if( xSpace >= pxStreamBuffer->xLength )
 5103858:	e15e0001 	cmp	lr, r1
        xSpace -= pxStreamBuffer->xLength;
 510385c:	9041100e 	subls	r1, r1, lr
}
 5103860:	e1510000 	cmp	r1, r0
 5103864:	83a00000 	movhi	r0, #0
 5103868:	93a00001 	movls	r0, #1
 510386c:	e8bd8010 	pop	{r4, pc}
    configASSERT( pxStreamBuffer );
 5103870:	e30d0a94 	movw	r0, #55956	; 0xda94
 5103874:	e3003900 	movw	r3, #2304	; 0x900
 5103878:	e3001557 	movw	r1, #1367	; 0x557
 510387c:	e3403511 	movt	r3, #1297	; 0x511
 5103880:	e3400512 	movt	r0, #1298	; 0x512
 5103884:	e12fff33 	blx	r3
 5103888:	eaffffe4 	b	5103820 <xStreamBufferIsFull+0xc>

0510388c <xStreamBufferIsEmpty>:
{
 510388c:	e92d4010 	push	{r4, lr}
    configASSERT( pxStreamBuffer );
 5103890:	e2504000 	subs	r4, r0, #0
 5103894:	0a000005 	beq	51038b0 <xStreamBufferIsEmpty+0x24>
    xTail = pxStreamBuffer->xTail;
 5103898:	e5943000 	ldr	r3, [r4]
    if( pxStreamBuffer->xHead == xTail )
 510389c:	e5940004 	ldr	r0, [r4, #4]
}
 51038a0:	e0400003 	sub	r0, r0, r3
 51038a4:	e16f0f10 	clz	r0, r0
 51038a8:	e1a002a0 	lsr	r0, r0, #5
 51038ac:	e8bd8010 	pop	{r4, pc}
    configASSERT( pxStreamBuffer );
 51038b0:	e30d0a94 	movw	r0, #55956	; 0xda94
 51038b4:	e3003900 	movw	r3, #2304	; 0x900
 51038b8:	e300153b 	movw	r1, #1339	; 0x53b
 51038bc:	e3403511 	movt	r3, #1297	; 0x511
 51038c0:	e3400512 	movt	r0, #1298	; 0x512
 51038c4:	e12fff33 	blx	r3
 51038c8:	eafffff2 	b	5103898 <xStreamBufferIsEmpty+0xc>

051038cc <xStreamBufferReset>:
{
 51038cc:	e92d43f0 	push	{r4, r5, r6, r7, r8, r9, lr}
    configASSERT( pxStreamBuffer );
 51038d0:	e2504000 	subs	r4, r0, #0
{
 51038d4:	e24dd00c 	sub	sp, sp, #12
    configASSERT( pxStreamBuffer );
 51038d8:	0a00002c 	beq	5103990 <xStreamBufferReset+0xc4>
    taskENTER_CRITICAL();
 51038dc:	e30c3930 	movw	r3, #51504	; 0xc930
 51038e0:	e3403510 	movt	r3, #1296	; 0x510
 51038e4:	e12fff33 	blx	r3
        if( ( pxStreamBuffer->xTaskWaitingToReceive == NULL ) && ( pxStreamBuffer->xTaskWaitingToSend == NULL ) )
 51038e8:	e5940010 	ldr	r0, [r4, #16]
 51038ec:	e3500000 	cmp	r0, #0
    BaseType_t xReturn = pdFAIL;
 51038f0:	13a00000 	movne	r0, #0
        if( ( pxStreamBuffer->xTaskWaitingToReceive == NULL ) && ( pxStreamBuffer->xTaskWaitingToSend == NULL ) )
 51038f4:	0a000006 	beq	5103914 <xStreamBufferReset+0x48>
 51038f8:	e58d0004 	str	r0, [sp, #4]
    taskEXIT_CRITICAL();
 51038fc:	e30c3988 	movw	r3, #51592	; 0xc988
 5103900:	e3403510 	movt	r3, #1296	; 0x510
 5103904:	e12fff33 	blx	r3
}
 5103908:	e59d0004 	ldr	r0, [sp, #4]
 510390c:	e28dd00c 	add	sp, sp, #12
 5103910:	e8bd83f0 	pop	{r4, r5, r6, r7, r8, r9, pc}
        if( ( pxStreamBuffer->xTaskWaitingToReceive == NULL ) && ( pxStreamBuffer->xTaskWaitingToSend == NULL ) )
 5103914:	e5943014 	ldr	r3, [r4, #20]
 5103918:	e3530000 	cmp	r3, #0
 510391c:	1afffff5 	bne	51038f8 <xStreamBufferReset+0x2c>
            prvInitialiseNewStreamBuffer( pxStreamBuffer,
 5103920:	e5946018 	ldr	r6, [r4, #24]
    {
        /* The value written just has to be identifiable when looking at the
         * memory.  Don't use 0xA5 as that is the stack fill value and could
         * result in confusion as to what is actually being observed. */
        #define STREAM_BUFFER_BUFFER_WRITE_VALUE    ( 0x55 )
        configASSERT( memset( pucBuffer, ( int ) STREAM_BUFFER_BUFFER_WRITE_VALUE, xBufferSizeBytes ) == pucBuffer );
 5103924:	e3095cbb 	movw	r5, #40123	; 0x9cbb
            prvInitialiseNewStreamBuffer( pxStreamBuffer,
 5103928:	e5947008 	ldr	r7, [r4, #8]
        configASSERT( memset( pucBuffer, ( int ) STREAM_BUFFER_BUFFER_WRITE_VALUE, xBufferSizeBytes ) == pucBuffer );
 510392c:	e3405511 	movt	r5, #1297	; 0x511
 5103930:	e1a02007 	mov	r2, r7
 5103934:	e3a01055 	mov	r1, #85	; 0x55
            prvInitialiseNewStreamBuffer( pxStreamBuffer,
 5103938:	e594900c 	ldr	r9, [r4, #12]
        configASSERT( memset( pucBuffer, ( int ) STREAM_BUFFER_BUFFER_WRITE_VALUE, xBufferSizeBytes ) == pucBuffer );
 510393c:	e1a00006 	mov	r0, r6
            prvInitialiseNewStreamBuffer( pxStreamBuffer,
 5103940:	e5d4801c 	ldrb	r8, [r4, #28]
        configASSERT( memset( pucBuffer, ( int ) STREAM_BUFFER_BUFFER_WRITE_VALUE, xBufferSizeBytes ) == pucBuffer );
 5103944:	e12fff35 	blx	r5
 5103948:	e1560000 	cmp	r6, r0
 510394c:	0a000005 	beq	5103968 <xStreamBufferReset+0x9c>
 5103950:	e30d0a94 	movw	r0, #55956	; 0xda94
 5103954:	e3003900 	movw	r3, #2304	; 0x900
 5103958:	e3400512 	movt	r0, #1298	; 0x512
 510395c:	e3001644 	movw	r1, #1604	; 0x644
 5103960:	e3403511 	movt	r3, #1297	; 0x511
 5103964:	e12fff33 	blx	r3
    }
    #endif

    ( void ) memset( ( void * ) pxStreamBuffer, 0x00, sizeof( StreamBuffer_t ) );
 5103968:	e3a02024 	mov	r2, #36	; 0x24
 510396c:	e3a01000 	mov	r1, #0
 5103970:	e1a00004 	mov	r0, r4
 5103974:	e12fff35 	blx	r5
    pxStreamBuffer->pucBuffer = pucBuffer;
 5103978:	e5846018 	str	r6, [r4, #24]
    pxStreamBuffer->xLength = xBufferSizeBytes;
 510397c:	e5847008 	str	r7, [r4, #8]
            xReturn = pdPASS;
 5103980:	e3a00001 	mov	r0, #1
    pxStreamBuffer->xTriggerLevelBytes = xTriggerLevelBytes;
 5103984:	e584900c 	str	r9, [r4, #12]
    pxStreamBuffer->ucFlags = ucFlags;
 5103988:	e5c4801c 	strb	r8, [r4, #28]
        /* More details at: https://github.com/FreeRTOS/FreeRTOS-Kernel/blob/main/MISRA.md#rule-111 */
        /* coverity[misra_c_2012_rule_11_1_violation] */
        ( void ) pxReceiveCompletedCallback;
    }
    #endif /* if ( configUSE_SB_COMPLETED_CALLBACK == 1 ) */
}
 510398c:	eaffffd9 	b	51038f8 <xStreamBufferReset+0x2c>
    configASSERT( pxStreamBuffer );
 5103990:	e30d0a94 	movw	r0, #55956	; 0xda94
 5103994:	e3003900 	movw	r3, #2304	; 0x900
 5103998:	e300125e 	movw	r1, #606	; 0x25e
 510399c:	e3403511 	movt	r3, #1297	; 0x511
 51039a0:	e3400512 	movt	r0, #1298	; 0x512
 51039a4:	e12fff33 	blx	r3
 51039a8:	eaffffcb 	b	51038dc <xStreamBufferReset+0x10>

051039ac <xStreamBufferResetFromISR>:
{
 51039ac:	e92d47f0 	push	{r4, r5, r6, r7, r8, r9, sl, lr}
    configASSERT( pxStreamBuffer );
 51039b0:	e2504000 	subs	r4, r0, #0
 51039b4:	0a000023 	beq	5103a48 <xStreamBufferResetFromISR+0x9c>
        if( ( pxStreamBuffer->xTaskWaitingToReceive == NULL ) && ( pxStreamBuffer->xTaskWaitingToSend == NULL ) )
 51039b8:	e5940010 	ldr	r0, [r4, #16]
 51039bc:	e3500000 	cmp	r0, #0
 51039c0:	0a000001 	beq	51039cc <xStreamBufferResetFromISR+0x20>
    BaseType_t xReturn = pdFAIL;
 51039c4:	e3a00000 	mov	r0, #0
}
 51039c8:	e8bd87f0 	pop	{r4, r5, r6, r7, r8, r9, sl, pc}
        if( ( pxStreamBuffer->xTaskWaitingToReceive == NULL ) && ( pxStreamBuffer->xTaskWaitingToSend == NULL ) )
 51039cc:	e5943014 	ldr	r3, [r4, #20]
 51039d0:	e3530000 	cmp	r3, #0
 51039d4:	18bd87f0 	popne	{r4, r5, r6, r7, r8, r9, sl, pc}
            prvInitialiseNewStreamBuffer( pxStreamBuffer,
 51039d8:	e5946018 	ldr	r6, [r4, #24]
        configASSERT( memset( pucBuffer, ( int ) STREAM_BUFFER_BUFFER_WRITE_VALUE, xBufferSizeBytes ) == pucBuffer );
 51039dc:	e3095cbb 	movw	r5, #40123	; 0x9cbb
            prvInitialiseNewStreamBuffer( pxStreamBuffer,
 51039e0:	e5947008 	ldr	r7, [r4, #8]
        configASSERT( memset( pucBuffer, ( int ) STREAM_BUFFER_BUFFER_WRITE_VALUE, xBufferSizeBytes ) == pucBuffer );
 51039e4:	e3405511 	movt	r5, #1297	; 0x511
 51039e8:	e1a02007 	mov	r2, r7
 51039ec:	e3a01055 	mov	r1, #85	; 0x55
            prvInitialiseNewStreamBuffer( pxStreamBuffer,
 51039f0:	e594900c 	ldr	r9, [r4, #12]
        configASSERT( memset( pucBuffer, ( int ) STREAM_BUFFER_BUFFER_WRITE_VALUE, xBufferSizeBytes ) == pucBuffer );
 51039f4:	e1a00006 	mov	r0, r6
            prvInitialiseNewStreamBuffer( pxStreamBuffer,
 51039f8:	e5d4801c 	ldrb	r8, [r4, #28]
        configASSERT( memset( pucBuffer, ( int ) STREAM_BUFFER_BUFFER_WRITE_VALUE, xBufferSizeBytes ) == pucBuffer );
 51039fc:	e12fff35 	blx	r5
 5103a00:	e1560000 	cmp	r6, r0
 5103a04:	0a000005 	beq	5103a20 <xStreamBufferResetFromISR+0x74>
 5103a08:	e30d0a94 	movw	r0, #55956	; 0xda94
 5103a0c:	e3003900 	movw	r3, #2304	; 0x900
 5103a10:	e3400512 	movt	r0, #1298	; 0x512
 5103a14:	e3001644 	movw	r1, #1604	; 0x644
 5103a18:	e3403511 	movt	r3, #1297	; 0x511
 5103a1c:	e12fff33 	blx	r3
    ( void ) memset( ( void * ) pxStreamBuffer, 0x00, sizeof( StreamBuffer_t ) );
 5103a20:	e3a02024 	mov	r2, #36	; 0x24
 5103a24:	e3a01000 	mov	r1, #0
 5103a28:	e1a00004 	mov	r0, r4
 5103a2c:	e12fff35 	blx	r5
    pxStreamBuffer->pucBuffer = pucBuffer;
 5103a30:	e5846018 	str	r6, [r4, #24]
    pxStreamBuffer->xLength = xBufferSizeBytes;
 5103a34:	e5847008 	str	r7, [r4, #8]
            xReturn = pdPASS;
 5103a38:	e3a00001 	mov	r0, #1
    pxStreamBuffer->xTriggerLevelBytes = xTriggerLevelBytes;
 5103a3c:	e584900c 	str	r9, [r4, #12]
    pxStreamBuffer->ucFlags = ucFlags;
 5103a40:	e5c4801c 	strb	r8, [r4, #28]
}
 5103a44:	e8bd87f0 	pop	{r4, r5, r6, r7, r8, r9, sl, pc}
    configASSERT( pxStreamBuffer );
 5103a48:	e30d0a94 	movw	r0, #55956	; 0xda94
 5103a4c:	e3003900 	movw	r3, #2304	; 0x900
 5103a50:	e3a01fa7 	mov	r1, #668	; 0x29c
 5103a54:	e3403511 	movt	r3, #1297	; 0x511
 5103a58:	e3400512 	movt	r0, #1298	; 0x512
 5103a5c:	e12fff33 	blx	r3
 5103a60:	eaffffd4 	b	51039b8 <xStreamBufferResetFromISR+0xc>

05103a64 <xStreamBufferSpacesAvailable>:
{
 5103a64:	e92d4010 	push	{r4, lr}
    configASSERT( pxStreamBuffer );
 5103a68:	e2504000 	subs	r4, r0, #0
 5103a6c:	0a00000c 	beq	5103aa4 <xStreamBufferSpacesAvailable+0x40>
        xSpace = pxStreamBuffer->xLength + pxStreamBuffer->xTail;
 5103a70:	e594c008 	ldr	ip, [r4, #8]
        xOriginalTail = pxStreamBuffer->xTail;
 5103a74:	e5943000 	ldr	r3, [r4]
        xSpace = pxStreamBuffer->xLength + pxStreamBuffer->xTail;
 5103a78:	e5941000 	ldr	r1, [r4]
        xSpace -= pxStreamBuffer->xHead;
 5103a7c:	e5940004 	ldr	r0, [r4, #4]
    } while( xOriginalTail != pxStreamBuffer->xTail );
 5103a80:	e5942000 	ldr	r2, [r4]
 5103a84:	e1520003 	cmp	r2, r3
 5103a88:	1afffff9 	bne	5103a74 <xStreamBufferSpacesAvailable+0x10>
    xSpace -= ( size_t ) 1;
 5103a8c:	e24c3001 	sub	r3, ip, #1
 5103a90:	e0831001 	add	r1, r3, r1
 5103a94:	e0410000 	sub	r0, r1, r0
    if( xSpace >= pxStreamBuffer->xLength )
 5103a98:	e15c0000 	cmp	ip, r0
        xSpace -= pxStreamBuffer->xLength;
 5103a9c:	9040000c 	subls	r0, r0, ip
}
 5103aa0:	e8bd8010 	pop	{r4, pc}
    configASSERT( pxStreamBuffer );
 5103aa4:	e30d0a94 	movw	r0, #55956	; 0xda94
 5103aa8:	e3003900 	movw	r3, #2304	; 0x900
 5103aac:	e30012fa 	movw	r1, #762	; 0x2fa
 5103ab0:	e3403511 	movt	r3, #1297	; 0x511
 5103ab4:	e3400512 	movt	r0, #1298	; 0x512
 5103ab8:	e12fff33 	blx	r3
 5103abc:	eaffffeb 	b	5103a70 <xStreamBufferSpacesAvailable+0xc>

05103ac0 <xStreamBufferBytesAvailable>:
{
 5103ac0:	e92d4010 	push	{r4, lr}
    configASSERT( pxStreamBuffer );
 5103ac4:	e2504000 	subs	r4, r0, #0
 5103ac8:	0a000007 	beq	5103aec <xStreamBufferBytesAvailable+0x2c>
    xCount = pxStreamBuffer->xLength + pxStreamBuffer->xHead;
 5103acc:	e5943008 	ldr	r3, [r4, #8]
 5103ad0:	e5940004 	ldr	r0, [r4, #4]
    xCount -= pxStreamBuffer->xTail;
 5103ad4:	e5942000 	ldr	r2, [r4]
    xCount = pxStreamBuffer->xLength + pxStreamBuffer->xHead;
 5103ad8:	e0830000 	add	r0, r3, r0
    xCount -= pxStreamBuffer->xTail;
 5103adc:	e0400002 	sub	r0, r0, r2
    if( xCount >= pxStreamBuffer->xLength )
 5103ae0:	e1530000 	cmp	r3, r0
        xCount -= pxStreamBuffer->xLength;
 5103ae4:	90400003 	subls	r0, r0, r3
}
 5103ae8:	e8bd8010 	pop	{r4, pc}
    configASSERT( pxStreamBuffer );
 5103aec:	e30d0a94 	movw	r0, #55956	; 0xda94
 5103af0:	e3003900 	movw	r3, #2304	; 0x900
 5103af4:	e300131e 	movw	r1, #798	; 0x31e
 5103af8:	e3403511 	movt	r3, #1297	; 0x511
 5103afc:	e3400512 	movt	r0, #1298	; 0x512
 5103b00:	e12fff33 	blx	r3
 5103b04:	eafffff0 	b	5103acc <xStreamBufferBytesAvailable+0xc>

05103b08 <xStreamBufferSetTriggerLevel>:
{
 5103b08:	e92d4070 	push	{r4, r5, r6, lr}
 5103b0c:	e1a04001 	mov	r4, r1
    configASSERT( pxStreamBuffer );
 5103b10:	e2505000 	subs	r5, r0, #0
 5103b14:	0a000007 	beq	5103b38 <xStreamBufferSetTriggerLevel+0x30>
    if( xTriggerLevel < pxStreamBuffer->xLength )
 5103b18:	e5953008 	ldr	r3, [r5, #8]
 5103b1c:	e3540001 	cmp	r4, #1
 5103b20:	33a04001 	movcc	r4, #1
 5103b24:	e1530004 	cmp	r3, r4
        xReturn = pdPASS;
 5103b28:	83a00001 	movhi	r0, #1
        xReturn = pdFALSE;
 5103b2c:	93a00000 	movls	r0, #0
        pxStreamBuffer->xTriggerLevelBytes = xTriggerLevel;
 5103b30:	8585400c 	strhi	r4, [r5, #12]
}
 5103b34:	e8bd8070 	pop	{r4, r5, r6, pc}
    configASSERT( pxStreamBuffer );
 5103b38:	e30d0a94 	movw	r0, #55956	; 0xda94
 5103b3c:	e3003900 	movw	r3, #2304	; 0x900
 5103b40:	e3a01fb6 	mov	r1, #728	; 0x2d8
 5103b44:	e3403511 	movt	r3, #1297	; 0x511
 5103b48:	e3400512 	movt	r0, #1298	; 0x512
 5103b4c:	e12fff33 	blx	r3
 5103b50:	eafffff0 	b	5103b18 <xStreamBufferSetTriggerLevel+0x10>

05103b54 <xStreamBufferSendCompletedFromISR>:
{
 5103b54:	e92d4070 	push	{r4, r5, r6, lr}
 5103b58:	e1a05001 	mov	r5, r1
    configASSERT( pxStreamBuffer );
 5103b5c:	e2504000 	subs	r4, r0, #0
{
 5103b60:	e24dd008 	sub	sp, sp, #8
    configASSERT( pxStreamBuffer );
 5103b64:	0a000010 	beq	5103bac <xStreamBufferSendCompletedFromISR+0x58>
        if( ( pxStreamBuffer )->xTaskWaitingToReceive != NULL )
 5103b68:	e5940010 	ldr	r0, [r4, #16]
 5103b6c:	e3500000 	cmp	r0, #0
 5103b70:	0a00000b 	beq	5103ba4 <xStreamBufferSendCompletedFromISR+0x50>
            ( void ) xTaskNotifyIndexedFromISR( ( pxStreamBuffer )->xTaskWaitingToReceive,
 5103b74:	e5940010 	ldr	r0, [r4, #16]
 5103b78:	e3a06000 	mov	r6, #0
 5103b7c:	e58d5004 	str	r5, [sp, #4]
 5103b80:	e3055640 	movw	r5, #22080	; 0x5640
 5103b84:	e58d6000 	str	r6, [sp]
 5103b88:	e1a03006 	mov	r3, r6
 5103b8c:	e5941020 	ldr	r1, [r4, #32]
 5103b90:	e3405510 	movt	r5, #1296	; 0x510
 5103b94:	e1a02006 	mov	r2, r6
 5103b98:	e12fff35 	blx	r5
            ( pxStreamBuffer )->xTaskWaitingToReceive = NULL;
 5103b9c:	e5846010 	str	r6, [r4, #16]
            xReturn = pdTRUE;
 5103ba0:	e3a00001 	mov	r0, #1
}
 5103ba4:	e28dd008 	add	sp, sp, #8
 5103ba8:	e8bd8070 	pop	{r4, r5, r6, pc}
    configASSERT( pxStreamBuffer );
 5103bac:	e30d0a94 	movw	r0, #55956	; 0xda94
 5103bb0:	e3003900 	movw	r3, #2304	; 0x900
 5103bb4:	e300157f 	movw	r1, #1407	; 0x57f
 5103bb8:	e3403511 	movt	r3, #1297	; 0x511
 5103bbc:	e3400512 	movt	r0, #1298	; 0x512
 5103bc0:	e12fff33 	blx	r3
 5103bc4:	eaffffe7 	b	5103b68 <xStreamBufferSendCompletedFromISR+0x14>

05103bc8 <xStreamBufferReceiveCompletedFromISR>:
{
 5103bc8:	e92d4070 	push	{r4, r5, r6, lr}
 5103bcc:	e1a05001 	mov	r5, r1
    configASSERT( pxStreamBuffer );
 5103bd0:	e2504000 	subs	r4, r0, #0
{
 5103bd4:	e24dd008 	sub	sp, sp, #8
    configASSERT( pxStreamBuffer );
 5103bd8:	0a000010 	beq	5103c20 <xStreamBufferReceiveCompletedFromISR+0x58>
        if( ( pxStreamBuffer )->xTaskWaitingToSend != NULL )
 5103bdc:	e5940014 	ldr	r0, [r4, #20]
 5103be0:	e3500000 	cmp	r0, #0
 5103be4:	0a00000b 	beq	5103c18 <xStreamBufferReceiveCompletedFromISR+0x50>
            ( void ) xTaskNotifyIndexedFromISR( ( pxStreamBuffer )->xTaskWaitingToSend,
 5103be8:	e5940014 	ldr	r0, [r4, #20]
